----------------
IN: 
0x0000000000001000:  00000297          auipc           t0,0            # 0x1000
0x0000000000001004:  02028593          addi            a1,t0,32
0x0000000000001008:  f1402573          csrrs           a0,mhartid,zero

----------------
IN: 
0x000000000000100c:  0182b283          ld              t0,24(t0)
0x0000000000001010:  00028067          jr              t0

----------------
IN: 
0x0000000080000000:  f1402873          csrrs           a6,mhartid,zero

----------------
IN: 
0x0000000080000004:  11004263          bgtz            a6,260          # 0x80000108

----------------
IN: 
0x0000000080000008:  00000297          auipc           t0,0            # 0x80000008
0x000000008000000c:  40828293          addi            t0,t0,1032
0x0000000080000010:  00000317          auipc           t1,0            # 0x80000010
0x0000000080000014:  ff030313          addi            t1,t1,-16
0x0000000080000018:  0062b023          sd              t1,0(t0)
0x000000008000001c:  00000297          auipc           t0,0            # 0x8000001c
0x0000000080000020:  3fc28293          addi            t0,t0,1020
0x0000000080000024:  0002b283          ld              t0,0(t0)
0x0000000080000028:  00000317          auipc           t1,0            # 0x80000028
0x000000008000002c:  3f830313          addi            t1,t1,1016
0x0000000080000030:  00033303          ld              t1,0(t1)
0x0000000080000034:  00000397          auipc           t2,0            # 0x80000034
0x0000000080000038:  3dc38393          addi            t2,t2,988
0x000000008000003c:  0003b383          ld              t2,0(t2)
0x0000000080000040:  40530e33          sub             t3,t1,t0
0x0000000080000044:  9e1e              add             t3,t3,t2
0x0000000080000046:  10728463          beq             t0,t2,264       # 0x8000014e

----------------
IN: 
0x000000008000014e:  00000297          auipc           t0,0            # 0x8000014e
0x0000000080000152:  2ba28293          addi            t0,t0,698
0x0000000080000156:  4305              addi            t1,zero,1
0x0000000080000158:  0062b023          sd              t1,0(t0)
0x000000008000015c:  0330000f          fence           rw,rw
0x0000000080000160:  4081              mv              ra,zero
0x0000000080000162:  3ee000ef          jal             ra,1006         # 0x80000550

----------------
IN: 
0x0000000080000550:  0000100f          fence.i         

----------------
IN: 
0x0000000080000554:  4101              mv              sp,zero
0x0000000080000556:  4181              mv              gp,zero
0x0000000080000558:  4201              mv              tp,zero
0x000000008000055a:  4281              mv              t0,zero
0x000000008000055c:  4301              mv              t1,zero
0x000000008000055e:  4381              mv              t2,zero
0x0000000080000560:  4401              mv              s0,zero
0x0000000080000562:  4481              mv              s1,zero
0x0000000080000564:  4681              mv              a3,zero
0x0000000080000566:  4701              mv              a4,zero
0x0000000080000568:  4781              mv              a5,zero
0x000000008000056a:  4801              mv              a6,zero
0x000000008000056c:  4881              mv              a7,zero
0x000000008000056e:  4901              mv              s2,zero
0x0000000080000570:  4981              mv              s3,zero
0x0000000080000572:  4a01              mv              s4,zero
0x0000000080000574:  4a81              mv              s5,zero
0x0000000080000576:  4b01              mv              s6,zero
0x0000000080000578:  4b81              mv              s7,zero
0x000000008000057a:  4c01              mv              s8,zero
0x000000008000057c:  4c81              mv              s9,zero
0x000000008000057e:  4d01              mv              s10,zero
0x0000000080000580:  4d81              mv              s11,zero
0x0000000080000582:  4e01              mv              t3,zero
0x0000000080000584:  4e81              mv              t4,zero
0x0000000080000586:  4f01              mv              t5,zero
0x0000000080000588:  4f81              mv              t6,zero
0x000000008000058a:  34005073          csrrwi          zero,mscratch,0

----------------
IN: 
0x000000008000058e:  8082              ret             

----------------
IN: 
0x0000000080000166:  00050433          add             s0,a0,zero
0x000000008000016a:  000584b3          add             s1,a1,zero
0x000000008000016e:  00060933          add             s2,a2,zero
0x0000000080000172:  000689b3          add             s3,a3,zero
0x0000000080000176:  00070a33          add             s4,a4,zero
0x000000008000017a:  416000ef          jal             ra,1046         # 0x80000590

----------------
IN: 
0x0000000080000590:  8082              ret             

----------------
IN: 
0x000000008000017e:  00040533          add             a0,s0,zero
0x0000000080000182:  000485b3          add             a1,s1,zero
0x0000000080000186:  00090633          add             a2,s2,zero
0x000000008000018a:  000986b3          add             a3,s3,zero
0x000000008000018e:  000a0733          add             a4,s4,zero
0x0000000080000192:  00009717          auipc           a4,36864        # 0x80009192
0x0000000080000196:  42e70713          addi            a4,a4,1070
0x000000008000019a:  05076b83          lwu             s7,80(a4)
0x000000008000019e:  05476c03          lwu             s8,84(a4)
0x00000000800001a2:  0000c217          auipc           tp,49152        # 0x8000c1a2
0x00000000800001a6:  e5e20213          addi            tp,tp,-418
0x00000000800001aa:  038b87b3          mul             a5,s7,s8
0x00000000800001ae:  923e              add             tp,tp,a5
0x00000000800001b0:  00020e33          add             t3,tp,zero
0x00000000800001b4:  4385              addi            t2,zero,1
0x00000000800001b6:  4301              mv              t1,zero
0x00000000800001b8:  000e0233          add             tp,t3,zero
0x00000000800001bc:  026c07b3          mul             a5,s8,t1
0x00000000800001c0:  40f20233          sub             tp,tp,a5
0x00000000800001c4:  20000793          addi            a5,zero,512
0x00000000800001c8:  40f20233          sub             tp,tp,a5
0x00000000800001cc:  00000717          auipc           a4,0            # 0x800001cc
0x00000000800001d0:  e3470713          addi            a4,a4,-460
0x00000000800001d4:  0000c797          auipc           a5,49152        # 0x8000c1d4
0x00000000800001d8:  e2c78793          addi            a5,a5,-468
0x00000000800001dc:  038b82b3          mul             t0,s7,s8
0x00000000800001e0:  9796              add             a5,a5,t0
0x00000000800001e2:  8f99              sub             a5,a5,a4
0x00000000800001e4:  00e23023          sd              a4,0(tp)
0x00000000800001e8:  00f23423          sd              a5,8(tp)
0x00000000800001ec:  00050433          add             s0,a0,zero
0x00000000800001f0:  000584b3          add             s1,a1,zero
0x00000000800001f4:  00060933          add             s2,a2,zero
0x00000000800001f8:  3a8000ef          jal             ra,936          # 0x800005a0

----------------
IN: 
0x00000000800005a0:  4110051b          addiw           a0,zero,1041
0x00000000800005a4:  01551513          slli            a0,a0,21
0x00000000800005a8:  8082              ret             

----------------
IN: 
0x00000000800001fc:  00a23823          sd              a0,16(tp)
0x0000000080000200:  00040533          add             a0,s0,zero
0x0000000080000204:  000485b3          add             a1,s1,zero
0x0000000080000208:  00090633          add             a2,s2,zero
0x000000008000020c:  00050433          add             s0,a0,zero
0x0000000080000210:  000584b3          add             s1,a1,zero
0x0000000080000214:  00060933          add             s2,a2,zero
0x0000000080000218:  398000ef          jal             ra,920          # 0x800005b0

----------------
IN: 
0x00000000800005b0:  00000517          auipc           a0,0            # 0x800005b0
0x00000000800005b4:  02050513          addi            a0,a0,32
0x00000000800005b8:  6108              ld              a0,0(a0)
0x00000000800005ba:  8082              ret             

----------------
IN: 
0x000000008000021c:  00a23c23          sd              a0,24(tp)
0x0000000080000220:  00040533          add             a0,s0,zero
0x0000000080000224:  000485b3          add             a1,s1,zero
0x0000000080000228:  00090633          add             a2,s2,zero
0x000000008000022c:  00050433          add             s0,a0,zero
0x0000000080000230:  000584b3          add             s1,a1,zero
0x0000000080000234:  00060933          add             s2,a2,zero
0x0000000080000238:  388000ef          jal             ra,904          # 0x800005c0

----------------
IN: 
0x00000000800005c0:  4505              addi            a0,zero,1
0x00000000800005c2:  8082              ret             

----------------
IN: 
0x000000008000023c:  02a23023          sd              a0,32(tp)
0x0000000080000240:  00040533          add             a0,s0,zero
0x0000000080000244:  000485b3          add             a1,s1,zero
0x0000000080000248:  00090633          add             a2,s2,zero
0x000000008000024c:  00000717          auipc           a4,0            # 0x8000024c
0x0000000080000250:  15270713          addi            a4,a4,338
0x0000000080000254:  02e23423          sd              a4,40(tp)
0x0000000080000258:  00009717          auipc           a4,36864        # 0x80009258
0x000000008000025c:  36870713          addi            a4,a4,872
0x0000000080000260:  02e23823          sd              a4,48(tp)
0x0000000080000264:  00000717          auipc           a4,0            # 0x80000264
0x0000000080000268:  1c470713          addi            a4,a4,452
0x000000008000026c:  02e23c23          sd              a4,56(tp)
0x0000000080000270:  04023023          sd              zero,64(tp)
0x0000000080000274:  00050433          add             s0,a0,zero
0x0000000080000278:  000584b3          add             s1,a1,zero
0x000000008000027c:  00060933          add             s2,a2,zero
0x0000000080000280:  00000733          add             a4,zero,zero
0x0000000080000284:  344000ef          jal             ra,836          # 0x800005c8

----------------
IN: 
0x00000000800005c8:  00000533          add             a0,zero,zero
0x00000000800005cc:  8082              ret             

----------------
IN: 
0x0000000080000288:  8f49              or              a4,a4,a0
0x000000008000028a:  04e23423          sd              a4,72(tp)
0x000000008000028e:  00040533          add             a0,s0,zero
0x0000000080000292:  000485b3          add             a1,s1,zero
0x0000000080000296:  00090633          add             a2,s2,zero
0x000000008000029a:  931e              add             t1,t1,t2
0x000000008000029c:  f1734ee3          bgt             s7,t1,-228      # 0x800001b8

----------------
IN: 
0x00000000800001b8:  000e0233          add             tp,t3,zero
0x00000000800001bc:  026c07b3          mul             a5,s8,t1
0x00000000800001c0:  40f20233          sub             tp,tp,a5
0x00000000800001c4:  20000793          addi            a5,zero,512
0x00000000800001c8:  40f20233          sub             tp,tp,a5
0x00000000800001cc:  00000717          auipc           a4,0            # 0x800001cc
0x00000000800001d0:  e3470713          addi            a4,a4,-460
0x00000000800001d4:  0000c797          auipc           a5,49152        # 0x8000c1d4
0x00000000800001d8:  e2c78793          addi            a5,a5,-468
0x00000000800001dc:  038b82b3          mul             t0,s7,s8
0x00000000800001e0:  9796              add             a5,a5,t0
0x00000000800001e2:  8f99              sub             a5,a5,a4
0x00000000800001e4:  00e23023          sd              a4,0(tp)
0x00000000800001e8:  00f23423          sd              a5,8(tp)
0x00000000800001ec:  00050433          add             s0,a0,zero
0x00000000800001f0:  000584b3          add             s1,a1,zero
0x00000000800001f4:  00060933          add             s2,a2,zero
0x00000000800001f8:  3a8000ef          jal             ra,936          # 0x800005a0

----------------
IN: 
0x00000000800002a0:  0000b717          auipc           a4,45056        # 0x8000b2a0
0x00000000800002a4:  d6070713          addi            a4,a4,-672
0x00000000800002a8:  0000b797          auipc           a5,45056        # 0x8000b2a8
0x00000000800002ac:  e1078793          addi            a5,a5,-496
0x00000000800002b0:  00073023          sd              zero,0(a4)
0x00000000800002b4:  0721              addi            a4,a4,8
0x00000000800002b6:  fef74de3          bgt             a5,a4,-6        # 0x800002b0

----------------
IN: 
0x00000000800002b0:  00073023          sd              zero,0(a4)
0x00000000800002b4:  0721              addi            a4,a4,8
0x00000000800002b6:  fef74de3          bgt             a5,a4,-6        # 0x800002b0

----------------
IN: 
0x00000000800002ba:  00050433          add             s0,a0,zero
0x00000000800002be:  000584b3          add             s1,a1,zero
0x00000000800002c2:  00060933          add             s2,a2,zero
0x00000000800002c6:  2d2000ef          jal             ra,722          # 0x80000598

----------------
IN: 
0x0000000080000598:  00000533          add             a0,zero,zero
0x000000008000059c:  8082              ret             

----------------
IN: 
0x00000000800002ca:  00050333          add             t1,a0,zero
0x00000000800002ce:  00040533          add             a0,s0,zero
0x00000000800002d2:  000485b3          add             a1,s1,zero
0x00000000800002d6:  00090633          add             a2,s2,zero
0x00000000800002da:  00030463          beqz            t1,8            # 0x800002e2

----------------
IN: 
0x00000000800002e2:  c9c1              beqz            a1,144          # 0x80000372

----------------
IN: 
0x00000000800002e4:  56e1              addi            a3,zero,-8
0x00000000800002e6:  0ff00713          addi            a4,zero,255
0x00000000800002ea:  00050433          add             s0,a0,zero
0x00000000800002ee:  000584b3          add             s1,a1,zero
0x00000000800002f2:  00060933          add             s2,a2,zero
0x00000000800002f6:  2aa000ef          jal             ra,682          # 0x800005a0

----------------
IN: 
0x00000000800002fa:  00050333          add             t1,a0,zero
0x00000000800002fe:  00040533          add             a0,s0,zero
0x0000000080000302:  000485b3          add             a1,s1,zero
0x0000000080000306:  00090633          add             a2,s2,zero
0x000000008000030a:  06030463          beqz            t1,104          # 0x80000372

----------------
IN: 
0x000000008000030e:  06b30263          beq             t1,a1,100       # 0x80000372

----------------
IN: 
0x0000000080000312:  00d37333          and             t1,t1,a3
0x0000000080000316:  000582b3          add             t0,a1,zero
0x000000008000031a:  00d2f2b3          and             t0,t0,a3
0x000000008000031e:  0042e383          lwu             t2,4(t0)
0x0000000080000322:  00038e33          add             t3,t2,zero
0x0000000080000326:  010e5e13          srli            t3,t3,16
0x000000008000032a:  00ee7e33          and             t3,t3,a4
0x000000008000032e:  0e22              slli            t3,t3,8
0x0000000080000330:  00038eb3          add             t4,t2,zero
0x0000000080000334:  008ede93          srli            t4,t4,8
0x0000000080000338:  00eefeb3          and             t4,t4,a4
0x000000008000033c:  0ec2              slli            t4,t4,16
0x000000008000033e:  00038f33          add             t5,t2,zero
0x0000000080000342:  00ef7f33          and             t5,t5,a4
0x0000000080000346:  0f62              slli            t5,t5,24
0x0000000080000348:  0183d393          srli            t2,t2,24
0x000000008000034c:  00e3f3b3          and             t2,t2,a4
0x0000000080000350:  01c3e3b3          or              t2,t2,t3
0x0000000080000354:  01d3e3b3          or              t2,t2,t4
0x0000000080000358:  01e3e3b3          or              t2,t2,t5
0x000000008000035c:  939a              add             t2,t2,t1
0x000000008000035e:  00735a63          ble             t2,t1,20        # 0x80000372

----------------
IN: 
0x0000000080000362:  0002be03          ld              t3,0(t0)
0x0000000080000366:  01c33023          sd              t3,0(t1)
0x000000008000036a:  02a1              addi            t0,t0,8
0x000000008000036c:  0321              addi            t1,t1,8
0x000000008000036e:  fe734ae3          bgt             t2,t1,-12       # 0x80000362

----------------
IN: 
0x0000000080000372:  4289              addi            t0,zero,2
0x0000000080000374:  00000317          auipc           t1,0            # 0x80000374
0x0000000080000378:  09430313          addi            t1,t1,148
0x000000008000037c:  00533023          sd              t0,0(t1)
0x0000000080000380:  0330000f          fence           rw,rw
0x0000000080000384:  a829              j               26              # 0x8000039e

----------------
IN: 
0x000000008000039e:  4081              mv              ra,zero
0x00000000800003a0:  1b0000ef          jal             ra,432          # 0x80000550

----------------
IN: 
0x00000000800003a4:  30401073          csrrw           zero,mie,zero

----------------
IN: 
0x00000000800003a8:  34401073          csrrw           zero,mip,zero

----------------
IN: 
0x00000000800003ac:  00009717          auipc           a4,36864        # 0x800093ac
0x00000000800003b0:  21470713          addi            a4,a4,532
0x00000000800003b4:  05076b83          lwu             s7,80(a4)
0x00000000800003b8:  05476c03          lwu             s8,84(a4)
0x00000000800003bc:  f1402b73          csrrs           s6,mhartid,zero

----------------
IN: 
0x00000000800003c0:  0b7b5463          ble             s7,s6,168       # 0x80000468

----------------
IN: 
0x00000000800003c4:  0000c217          auipc           tp,49152        # 0x8000c3c4
0x00000000800003c8:  c3c20213          addi            tp,tp,-964
0x00000000800003cc:  038b87b3          mul             a5,s7,s8
0x00000000800003d0:  923e              add             tp,tp,a5
0x00000000800003d2:  036c07b3          mul             a5,s8,s6
0x00000000800003d6:  40f20233          sub             tp,tp,a5
0x00000000800003da:  20000793          addi            a5,zero,512
0x00000000800003de:  40f20233          sub             tp,tp,a5
0x00000000800003e2:  34021073          csrrw           zero,mscratch,tp

----------------
IN: 
0x00000000800003e6:  00020133          add             sp,tp,zero
0x00000000800003ea:  00000717          auipc           a4,0            # 0x800003ea
0x00000000800003ee:  08670713          addi            a4,a4,134
0x00000000800003f2:  30571073          csrrw           zero,mtvec,a4

----------------
IN: 
0x00000000800003f6:  305027f3          csrrs           a5,mtvec,zero

----------------
IN: 
0x00000000800003fa:  fef71ee3          bne             a4,a5,-4        # 0x800003f6

----------------
IN: 
0x00000000800003fe:  34002573          csrrs           a0,mscratch,zero

----------------
IN: 
0x0000000080000402:  1e0000ef          jal             ra,480          # 0x800005e2

----------------
IN: 
0x00000000800005e2:  7159              addi            sp,sp,-112
0x00000000800005e4:  f0a2              sd              s0,96(sp)
0x00000000800005e6:  eca6              sd              s1,88(sp)
0x00000000800005e8:  e4ce              sd              s3,72(sp)
0x00000000800005ea:  f486              sd              ra,104(sp)
0x00000000800005ec:  e8ca              sd              s2,80(sp)
0x00000000800005ee:  e0d2              sd              s4,64(sp)
0x00000000800005f0:  1880              addi            s0,sp,112
0x00000000800005f2:  84aa              mv              s1,a0
0x00000000800005f4:  390040ef          jal             ra,17296        # 0x80004984

----------------
IN: 
0x0000000080004984:  1141              addi            sp,sp,-16
0x0000000080004986:  e422              sd              s0,8(sp)
0x0000000080004988:  0800              addi            s0,sp,16
0x000000008000498a:  f1402573          csrrs           a0,mhartid,zero

----------------
IN: 
0x000000008000498e:  6422              ld              s0,8(sp)
0x0000000080004990:  2501              sext.w          a0,a0
0x0000000080004992:  0141              addi            sp,sp,16
0x0000000080004994:  8082              ret             

----------------
IN: 
0x00000000800005f8:  0314c703          lbu             a4,49(s1)
0x00000000800005fc:  0304c683          lbu             a3,48(s1)
0x0000000080000600:  0324c783          lbu             a5,50(s1)
0x0000000080000604:  0334c583          lbu             a1,51(s1)
0x0000000080000608:  0722              slli            a4,a4,8
0x000000008000060a:  0344c603          lbu             a2,52(s1)
0x000000008000060e:  8f55              or              a4,a4,a3
0x0000000080000610:  07c2              slli            a5,a5,16
0x0000000080000612:  0354c683          lbu             a3,53(s1)
0x0000000080000616:  8fd9              or              a5,a5,a4
0x0000000080000618:  05e2              slli            a1,a1,24
0x000000008000061a:  0364c703          lbu             a4,54(s1)
0x000000008000061e:  8ddd              or              a1,a1,a5
0x0000000080000620:  1602              slli            a2,a2,32
0x0000000080000622:  0374c783          lbu             a5,55(s1)
0x0000000080000626:  8e4d              or              a2,a2,a1
0x0000000080000628:  16a2              slli            a3,a3,40
0x000000008000062a:  8ed1              or              a3,a3,a2
0x000000008000062c:  1742              slli            a4,a4,48
0x000000008000062e:  8f55              or              a4,a4,a3
0x0000000080000630:  17e2              slli            a5,a5,56
0x0000000080000632:  8fd9              or              a5,a5,a4
0x0000000080000634:  0005099b          sext.w          s3,a0
0x0000000080000638:  c7b1              beqz            a5,76           # 0x80000684

----------------
IN: 
0x000000008000063a:  0597c683          lbu             a3,89(a5)
0x000000008000063e:  0587c603          lbu             a2,88(a5)
0x0000000080000642:  05a7c703          lbu             a4,90(a5)
0x0000000080000646:  05b7c503          lbu             a0,91(a5)
0x000000008000064a:  05c7c583          lbu             a1,92(a5)
0x000000008000064e:  06a2              slli            a3,a3,8
0x0000000080000650:  8ed1              or              a3,a3,a2
0x0000000080000652:  0742              slli            a4,a4,16
0x0000000080000654:  05d7c603          lbu             a2,93(a5)
0x0000000080000658:  8f55              or              a4,a4,a3
0x000000008000065a:  0562              slli            a0,a0,24
0x000000008000065c:  05e7c683          lbu             a3,94(a5)
0x0000000080000660:  8d59              or              a0,a0,a4
0x0000000080000662:  1582              slli            a1,a1,32
0x0000000080000664:  05f7c703          lbu             a4,95(a5)
0x0000000080000668:  8dc9              or              a1,a1,a0
0x000000008000066a:  02861793          slli            a5,a2,40
0x000000008000066e:  8fcd              or              a5,a5,a1
0x0000000080000670:  16c2              slli            a3,a3,48
0x0000000080000672:  8edd              or              a3,a3,a5
0x0000000080000674:  1762              slli            a4,a4,56
0x0000000080000676:  4785              addi            a5,zero,1
0x0000000080000678:  013797bb          sllw            a5,a5,s3
0x000000008000067c:  8f55              or              a4,a4,a3
0x000000008000067e:  8ff9              and             a5,a5,a4
0x0000000080000680:  16079e63          bnez            a5,380          # 0x800007fc

----------------
IN: 
0x0000000080000684:  4585              addi            a1,zero,1
0x0000000080000686:  0000b517          auipc           a0,45056        # 0x8000b686
0x000000008000068a:  97a50513          addi            a0,a0,-1670
0x000000008000068e:  24d020ef          jal             ra,10828        # 0x800030da

----------------
IN: 
0x00000000800030da:  1141              addi            sp,sp,-16
0x00000000800030dc:  e422              sd              s0,8(sp)
0x00000000800030de:  0800              addi            s0,sp,16
0x00000000800030e0:  06b527af          amoadd.w.aq.rl  a5,a1,(a0)
0x00000000800030e4:  6422              ld              s0,8(sp)
0x00000000800030e6:  00f58533          add             a0,a1,a5
0x00000000800030ea:  0141              addi            sp,sp,16
0x00000000800030ec:  8082              ret             

----------------
IN: 
0x0000000080000692:  4785              addi            a5,zero,1
0x0000000080000694:  16f50663          beq             a0,a5,364       # 0x80000800

----------------
IN: 
0x0000000080000800:  0314c783          lbu             a5,49(s1)
0x0000000080000804:  0304c903          lbu             s2,48(s1)
0x0000000080000808:  0324c603          lbu             a2,50(s1)
0x000000008000080c:  0334c683          lbu             a3,51(s1)
0x0000000080000810:  07a2              slli            a5,a5,8
0x0000000080000812:  0344c703          lbu             a4,52(s1)
0x0000000080000816:  0127e7b3          or              a5,a5,s2
0x000000008000081a:  0642              slli            a2,a2,16
0x000000008000081c:  0354c903          lbu             s2,53(s1)
0x0000000080000820:  8e5d              or              a2,a2,a5
0x0000000080000822:  06e2              slli            a3,a3,24
0x0000000080000824:  0364c783          lbu             a5,54(s1)
0x0000000080000828:  8ed1              or              a3,a3,a2
0x000000008000082a:  1702              slli            a4,a4,32
0x000000008000082c:  0374c603          lbu             a2,55(s1)
0x0000000080000830:  8f55              or              a4,a4,a3
0x0000000080000832:  1922              slli            s2,s2,40
0x0000000080000834:  00e96933          or              s2,s2,a4
0x0000000080000838:  17c2              slli            a5,a5,48
0x000000008000083a:  0127e7b3          or              a5,a5,s2
0x000000008000083e:  4585              addi            a1,zero,1
0x0000000080000840:  03861913          slli            s2,a2,56
0x0000000080000844:  8526              mv              a0,s1
0x0000000080000846:  00f96933          or              s2,s2,a5
0x000000008000084a:  195000ef          jal             ra,2452         # 0x800011de

----------------
IN: 
0x00000000800011de:  03154703          lbu             a4,49(a0)
0x00000000800011e2:  03054683          lbu             a3,48(a0)
0x00000000800011e6:  03254783          lbu             a5,50(a0)
0x00000000800011ea:  03354803          lbu             a6,51(a0)
0x00000000800011ee:  0722              slli            a4,a4,8
0x00000000800011f0:  03454603          lbu             a2,52(a0)
0x00000000800011f4:  8f55              or              a4,a4,a3
0x00000000800011f6:  07c2              slli            a5,a5,16
0x00000000800011f8:  03554683          lbu             a3,53(a0)
0x00000000800011fc:  8fd9              or              a5,a5,a4
0x00000000800011fe:  0862              slli            a6,a6,24
0x0000000080001200:  03654703          lbu             a4,54(a0)
0x0000000080001204:  00f86833          or              a6,a6,a5
0x0000000080001208:  1602              slli            a2,a2,32
0x000000008000120a:  03754783          lbu             a5,55(a0)
0x000000008000120e:  01066633          or              a2,a2,a6
0x0000000080001212:  16a2              slli            a3,a3,40
0x0000000080001214:  8ed1              or              a3,a3,a2
0x0000000080001216:  1742              slli            a4,a4,48
0x0000000080001218:  8f55              or              a4,a4,a3
0x000000008000121a:  17e2              slli            a5,a5,56
0x000000008000121c:  8fd9              or              a5,a5,a4
0x000000008000121e:  cfd9              beqz            a5,158          # 0x800012bc

----------------
IN: 
0x0000000080001220:  0617c703          lbu             a4,97(a5)
0x0000000080001224:  0607c683          lbu             a3,96(a5)
0x0000000080001228:  0627c803          lbu             a6,98(a5)
0x000000008000122c:  0637c503          lbu             a0,99(a5)
0x0000000080001230:  0647c603          lbu             a2,100(a5)
0x0000000080001234:  0722              slli            a4,a4,8
0x0000000080001236:  8f55              or              a4,a4,a3
0x0000000080001238:  0842              slli            a6,a6,16
0x000000008000123a:  0657c683          lbu             a3,101(a5)
0x000000008000123e:  00e86833          or              a6,a6,a4
0x0000000080001242:  0562              slli            a0,a0,24
0x0000000080001244:  0667c703          lbu             a4,102(a5)
0x0000000080001248:  01056533          or              a0,a0,a6
0x000000008000124c:  1602              slli            a2,a2,32
0x000000008000124e:  0677c783          lbu             a5,103(a5)
0x0000000080001252:  8e49              or              a2,a2,a0
0x0000000080001254:  16a2              slli            a3,a3,40
0x0000000080001256:  8ed1              or              a3,a3,a2
0x0000000080001258:  1742              slli            a4,a4,48
0x000000008000125a:  8f55              or              a4,a4,a3
0x000000008000125c:  17e2              slli            a5,a5,56
0x000000008000125e:  8fd9              or              a5,a5,a4
0x0000000080001260:  0017c703          lbu             a4,1(a5)
0x0000000080001264:  0007c683          lbu             a3,0(a5)
0x0000000080001268:  0027c883          lbu             a7,2(a5)
0x000000008000126c:  0037c803          lbu             a6,3(a5)
0x0000000080001270:  0047c603          lbu             a2,4(a5)
0x0000000080001274:  0722              slli            a4,a4,8
0x0000000080001276:  8f55              or              a4,a4,a3
0x0000000080001278:  08c2              slli            a7,a7,16
0x000000008000127a:  0057c683          lbu             a3,5(a5)
0x000000008000127e:  00e8e8b3          or              a7,a7,a4
0x0000000080001282:  0862              slli            a6,a6,24
0x0000000080001284:  0067c703          lbu             a4,6(a5)
0x0000000080001288:  01186833          or              a6,a6,a7
0x000000008000128c:  1602              slli            a2,a2,32
0x000000008000128e:  0077c783          lbu             a5,7(a5)
0x0000000080001292:  01066633          or              a2,a2,a6
0x0000000080001296:  16a2              slli            a3,a3,40
0x0000000080001298:  8ed1              or              a3,a3,a2
0x000000008000129a:  1742              slli            a4,a4,48
0x000000008000129c:  8f55              or              a4,a4,a3
0x000000008000129e:  17e2              slli            a5,a5,56
0x00000000800012a0:  8fd9              or              a5,a5,a4
0x00000000800012a2:  4501              mv              a0,zero
0x00000000800012a4:  cb99              beqz            a5,22           # 0x800012ba

----------------
IN: 
0x00000000800012ba:  8082              ret             

----------------
IN: 
0x000000008000084e:  f55d              bnez            a0,-82          # 0x800007fc

----------------
IN: 
0x0000000080000850:  4605              addi            a2,zero,1
0x0000000080000852:  85ce              mv              a1,s3
0x0000000080000854:  8526              mv              a0,s1
0x0000000080000856:  2b0040ef          jal             ra,17072        # 0x80004b06

----------------
IN: 
0x0000000080004b06:  715d              addi            sp,sp,-80
0x0000000080004b08:  e0a2              sd              s0,64(sp)
0x0000000080004b0a:  fc26              sd              s1,56(sp)
0x0000000080004b0c:  f44e              sd              s3,40(sp)
0x0000000080004b0e:  e486              sd              ra,72(sp)
0x0000000080004b10:  f84a              sd              s2,48(sp)
0x0000000080004b12:  f052              sd              s4,32(sp)
0x0000000080004b14:  0880              addi            s0,sp,80
0x0000000080004b16:  84aa              mv              s1,a0
0x0000000080004b18:  89ae              mv              s3,a1
0x0000000080004b1a:  ce11              beqz            a2,28           # 0x80004b36

----------------
IN: 
0x0000000080004b1c:  00005597          auipc           a1,20480        # 0x80009b1c
0x0000000080004b20:  c2458593          addi            a1,a1,-988
0x0000000080004b24:  4521              addi            a0,zero,8
0x0000000080004b26:  e44fc0ef          jal             ra,-14780       # 0x8000116a

----------------
IN: 
0x000000008000116a:  1101              addi            sp,sp,-32
0x000000008000116c:  e822              sd              s0,16(sp)
0x000000008000116e:  e04a              sd              s2,0(sp)
0x0000000080001170:  ec06              sd              ra,24(sp)
0x0000000080001172:  e426              sd              s1,8(sp)
0x0000000080001174:  1000              addi            s0,sp,32
0x0000000080001176:  4901              mv              s2,zero
0x0000000080001178:  c521              beqz            a0,72           # 0x800011c0

----------------
IN: 
0x000000008000117a:  00757793          andi            a5,a0,7
0x000000008000117e:  84aa              mv              s1,a0
0x0000000080001180:  c789              beqz            a5,10           # 0x8000118a

----------------
IN: 
0x000000008000118a:  0000a517          auipc           a0,40960        # 0x8000b18a
0x000000008000118e:  e8650513          addi            a0,a0,-378
0x0000000080001192:  0b2020ef          jal             ra,8370         # 0x80003244

----------------
IN: 
0x0000000080003244:  1141              addi            sp,sp,-16
0x0000000080003246:  e422              sd              s0,8(sp)
0x0000000080003248:  0800              addi            s0,sp,16
0x000000008000324a:  4705              addi            a4,zero,1
0x000000008000324c:  611c              ld              a5,0(a0)
0x000000008000324e:  fffd              bnez            a5,-2           # 0x8000324c

----------------
IN: 
0x0000000080003250:  08e527af          amoswap.w       a5,a4,(a0)
0x0000000080003254:  0230000f          fence           r,rw
0x0000000080003258:  2781              sext.w          a5,a5
0x000000008000325a:  fbed              bnez            a5,-14          # 0x8000324c

----------------
IN: 
0x000000008000325c:  6422              ld              s0,8(sp)
0x000000008000325e:  0141              addi            sp,sp,16
0x0000000080003260:  8082              ret             

----------------
IN: 
0x0000000080001196:  00009797          auipc           a5,36864        # 0x8000a196
0x000000008000119a:  e6a78793          addi            a5,a5,-406
0x000000008000119e:  0007b903          ld              s2,0(a5)
0x00000000800011a2:  20000793          addi            a5,zero,512
0x00000000800011a6:  94ca              add             s1,s1,s2
0x00000000800011a8:  0297e363          bgtu            s1,a5,38        # 0x800011ce

----------------
IN: 
0x00000000800011ac:  00009797          auipc           a5,36864        # 0x8000a1ac
0x00000000800011b0:  e497ba23          sd              s1,-428(a5)
0x00000000800011b4:  0000a517          auipc           a0,40960        # 0x8000b1b4
0x00000000800011b8:  e5c50513          addi            a0,a0,-420
0x00000000800011bc:  0a6020ef          jal             ra,8358         # 0x80003262

----------------
IN: 
0x0000000080003262:  1141              addi            sp,sp,-16
0x0000000080003264:  e422              sd              s0,8(sp)
0x0000000080003266:  0800              addi            s0,sp,16
0x0000000080003268:  0310000f          fence           rw,w
0x000000008000326c:  6422              ld              s0,8(sp)
0x000000008000326e:  00053023          sd              zero,0(a0)
0x0000000080003272:  0141              addi            sp,sp,16
0x0000000080003274:  8082              ret             

----------------
IN: 
0x00000000800011c0:  60e2              ld              ra,24(sp)
0x00000000800011c2:  6442              ld              s0,16(sp)
0x00000000800011c4:  854a              mv              a0,s2
0x00000000800011c6:  64a2              ld              s1,8(sp)
0x00000000800011c8:  6902              ld              s2,0(sp)
0x00000000800011ca:  6105              addi            sp,sp,32
0x00000000800011cc:  8082              ret             

----------------
IN: 
0x0000000080004b2a:  00006797          auipc           a5,24576        # 0x8000ab2a
0x0000000080004b2e:  52a7b723          sd              a0,1326(a5)
0x0000000080004b32:  40050e63          beqz            a0,1052         # 0x80004f4e

----------------
IN: 
0x0000000080004b36:  0314c703          lbu             a4,49(s1)
0x0000000080004b3a:  0304c783          lbu             a5,48(s1)
0x0000000080004b3e:  0324c583          lbu             a1,50(s1)
0x0000000080004b42:  0334c603          lbu             a2,51(s1)
0x0000000080004b46:  0344c683          lbu             a3,52(s1)
0x0000000080004b4a:  0722              slli            a4,a4,8
0x0000000080004b4c:  8f5d              or              a4,a4,a5
0x0000000080004b4e:  05c2              slli            a1,a1,16
0x0000000080004b50:  0354c783          lbu             a5,53(s1)
0x0000000080004b54:  8dd9              or              a1,a1,a4
0x0000000080004b56:  0662              slli            a2,a2,24
0x0000000080004b58:  0364c703          lbu             a4,54(s1)
0x0000000080004b5c:  8e4d              or              a2,a2,a1
0x0000000080004b5e:  1682              slli            a3,a3,32
0x0000000080004b60:  0374c583          lbu             a1,55(s1)
0x0000000080004b64:  8ed1              or              a3,a3,a2
0x0000000080004b66:  17a2              slli            a5,a5,40
0x0000000080004b68:  8fd5              or              a5,a5,a3
0x0000000080004b6a:  1742              slli            a4,a4,48
0x0000000080004b6c:  8f5d              or              a4,a4,a5
0x0000000080004b6e:  03859793          slli            a5,a1,56
0x0000000080004b72:  8fd9              or              a5,a5,a4
0x0000000080004b74:  30102773          csrrs           a4,misa,zero

----------------
IN: 
0x0000000080004b78:  8b21              andi            a4,a4,8
0x0000000080004b7a:  3a070f63          beqz            a4,958          # 0x80004f38

----------------
IN: 
0x0000000080004b7e:  6719              lui             a4,24576
0x0000000080004b80:  30071073          csrrw           zero,mstatus,a4

----------------
IN: 
0x0000000080004b84:  30102773          csrrs           a4,misa,zero

----------------
IN: 
0x0000000080004b88:  02d71693          slli            a3,a4,45
0x0000000080004b8c:  0406d663          bgez            a3,76           # 0x80004bd8

----------------
IN: 
0x0000000080004b90:  0497c683          lbu             a3,73(a5)
0x0000000080004b94:  0487c603          lbu             a2,72(a5)
0x0000000080004b98:  04a7c703          lbu             a4,74(a5)
0x0000000080004b9c:  04b7c503          lbu             a0,75(a5)
0x0000000080004ba0:  06a2              slli            a3,a3,8
0x0000000080004ba2:  04c7c583          lbu             a1,76(a5)
0x0000000080004ba6:  8ed1              or              a3,a3,a2
0x0000000080004ba8:  0742              slli            a4,a4,16
0x0000000080004baa:  04d7c603          lbu             a2,77(a5)
0x0000000080004bae:  8f55              or              a4,a4,a3
0x0000000080004bb0:  0562              slli            a0,a0,24
0x0000000080004bb2:  04e7c683          lbu             a3,78(a5)
0x0000000080004bb6:  8d59              or              a0,a0,a4
0x0000000080004bb8:  1582              slli            a1,a1,32
0x0000000080004bba:  04f7c703          lbu             a4,79(a5)
0x0000000080004bbe:  8dc9              or              a1,a1,a0
0x0000000080004bc0:  1622              slli            a2,a2,40
0x0000000080004bc2:  8e4d              or              a2,a2,a1
0x0000000080004bc4:  16c2              slli            a3,a3,48
0x0000000080004bc6:  8ed1              or              a3,a3,a2
0x0000000080004bc8:  1762              slli            a4,a4,56
0x0000000080004bca:  8f55              or              a4,a4,a3
0x0000000080004bcc:  00877693          andi            a3,a4,8
0x0000000080004bd0:  c6a9              beqz            a3,74           # 0x80004c1a

----------------
IN: 
0x0000000080004bd2:  577d              addi            a4,zero,-1
0x0000000080004bd4:  10671073          csrrw           zero,scounteren,a4

----------------
IN: 
0x0000000080004bd8:  0497c683          lbu             a3,73(a5)
0x0000000080004bdc:  0487c603          lbu             a2,72(a5)
0x0000000080004be0:  04a7c703          lbu             a4,74(a5)
0x0000000080004be4:  04b7c503          lbu             a0,75(a5)
0x0000000080004be8:  04c7c583          lbu             a1,76(a5)
0x0000000080004bec:  06a2              slli            a3,a3,8
0x0000000080004bee:  8ed1              or              a3,a3,a2
0x0000000080004bf0:  0742              slli            a4,a4,16
0x0000000080004bf2:  04d7c603          lbu             a2,77(a5)
0x0000000080004bf6:  8f55              or              a4,a4,a3
0x0000000080004bf8:  0562              slli            a0,a0,24
0x0000000080004bfa:  04e7c683          lbu             a3,78(a5)
0x0000000080004bfe:  8d59              or              a0,a0,a4
0x0000000080004c00:  1582              slli            a1,a1,32
0x0000000080004c02:  04f7c703          lbu             a4,79(a5)
0x0000000080004c06:  8dc9              or              a1,a1,a0
0x0000000080004c08:  02861793          slli            a5,a2,40
0x0000000080004c0c:  00b7e633          or              a2,a5,a1
0x0000000080004c10:  03069793          slli            a5,a3,48
0x0000000080004c14:  8fd1              or              a5,a5,a2
0x0000000080004c16:  1762              slli            a4,a4,56
0x0000000080004c18:  8f5d              or              a4,a4,a5
0x0000000080004c1a:  8b41              andi            a4,a4,16
0x0000000080004c1c:  c701              beqz            a4,8            # 0x80004c24

----------------
IN: 
0x0000000080004c1e:  57fd              addi            a5,zero,-1
0x0000000080004c20:  30679073          csrrw           zero,mcounteren,a5

----------------
IN: 
0x0000000080004c24:  30405073          csrrwi          zero,mie,0

----------------
IN: 
0x0000000080004c28:  301027f3          csrrs           a5,misa,zero

----------------
IN: 
0x0000000080004c2c:  02d79713          slli            a4,a5,45
0x0000000080004c30:  00075463          bgez            a4,8            # 0x80004c38

----------------
IN: 
0x0000000080004c34:  18005073          csrrwi          zero,satp,0

----------------
IN: 
0x0000000080004c38:  301027f3          csrrs           a5,misa,zero

----------------
IN: 
0x0000000080004c3c:  8ba1              andi            a5,a5,8
0x0000000080004c3e:  2e078663          beqz            a5,748          # 0x80004f2a

----------------
IN: 
0x0000000080004c42:  300027f3          csrrs           a5,mstatus,zero

----------------
IN: 
0x0000000080004c46:  6719              lui             a4,24576
0x0000000080004c48:  8ff9              and             a5,a5,a4
0x0000000080004c4a:  30078463          beqz            a5,776          # 0x80004f52

----------------
IN: 
0x0000000080004c4e:  4781              mv              a5,zero
0x0000000080004c50:  10000713          addi            a4,zero,256
0x0000000080004c54:  4501              mv              a0,zero
0x0000000080004c56:  00002697          auipc           a3,8192         # 0x80006c56
0x0000000080004c5a:  96be              add             a3,a3,a5
0x0000000080004c5c:  ae8682e7          jalr            t0,a3,-1304

----------------
IN: 
0x000000008000673e:  f0050053          fmv.s.x         ft0,a0
0x0000000080006742:  00028067          jr              t0

----------------
IN: 
0x0000000080004c60:  07a1              addi            a5,a5,8
0x0000000080004c62:  fee799e3          bne             a5,a4,-14       # 0x80004c54

----------------
IN: 
0x0000000080004c54:  4501              mv              a0,zero
0x0000000080004c56:  00002697          auipc           a3,8192         # 0x80006c56
0x0000000080004c5a:  96be              add             a3,a3,a5
0x0000000080004c5c:  ae8682e7          jalr            t0,a3,-1304

----------------
IN: 
0x0000000080006746:  f00500d3          fmv.s.x         ft1,a0
0x000000008000674a:  00028067          jr              t0

----------------
IN: 
0x000000008000674e:  f0050153          fmv.s.x         ft2,a0
0x0000000080006752:  00028067          jr              t0

----------------
IN: 
0x0000000080006756:  f00501d3          fmv.s.x         ft3,a0
0x000000008000675a:  00028067          jr              t0

----------------
IN: 
0x000000008000675e:  f0050253          fmv.s.x         ft4,a0
0x0000000080006762:  00028067          jr              t0

----------------
IN: 
0x0000000080006766:  f00502d3          fmv.s.x         ft5,a0
0x000000008000676a:  00028067          jr              t0

----------------
IN: 
0x000000008000676e:  f0050353          fmv.s.x         ft6,a0
0x0000000080006772:  00028067          jr              t0

----------------
IN: 
0x0000000080006776:  f00503d3          fmv.s.x         ft7,a0
0x000000008000677a:  00028067          jr              t0

----------------
IN: 
0x000000008000677e:  f0050453          fmv.s.x         fs0,a0
0x0000000080006782:  00028067          jr              t0

----------------
IN: 
0x0000000080006786:  f00504d3          fmv.s.x         fs1,a0
0x000000008000678a:  00028067          jr              t0

----------------
IN: 
0x000000008000678e:  f0050553          fmv.s.x         fa0,a0
0x0000000080006792:  00028067          jr              t0

----------------
IN: 
0x0000000080006796:  f00505d3          fmv.s.x         fa1,a0
0x000000008000679a:  00028067          jr              t0

----------------
IN: 
0x000000008000679e:  f0050653          fmv.s.x         fa2,a0
0x00000000800067a2:  00028067          jr              t0

----------------
IN: 
0x00000000800067a6:  f00506d3          fmv.s.x         fa3,a0
0x00000000800067aa:  00028067          jr              t0

----------------
IN: 
0x00000000800067ae:  f0050753          fmv.s.x         fa4,a0
0x00000000800067b2:  00028067          jr              t0

----------------
IN: 
0x00000000800067b6:  f00507d3          fmv.s.x         fa5,a0
0x00000000800067ba:  00028067          jr              t0

----------------
IN: 
0x00000000800067be:  f0050853          fmv.s.x         fa6,a0
0x00000000800067c2:  00028067          jr              t0

----------------
IN: 
0x00000000800067c6:  f00508d3          fmv.s.x         fa7,a0
0x00000000800067ca:  00028067          jr              t0

----------------
IN: 
0x00000000800067ce:  f0050953          fmv.s.x         fs2,a0
0x00000000800067d2:  00028067          jr              t0

----------------
IN: 
0x00000000800067d6:  f00509d3          fmv.s.x         fs3,a0
0x00000000800067da:  00028067          jr              t0

----------------
IN: 
0x00000000800067de:  f0050a53          fmv.s.x         fs4,a0
0x00000000800067e2:  00028067          jr              t0

----------------
IN: 
0x00000000800067e6:  f0050ad3          fmv.s.x         fs5,a0
0x00000000800067ea:  00028067          jr              t0

----------------
IN: 
0x00000000800067ee:  f0050b53          fmv.s.x         fs6,a0
0x00000000800067f2:  00028067          jr              t0

----------------
IN: 
0x00000000800067f6:  f0050bd3          fmv.s.x         fs7,a0
0x00000000800067fa:  00028067          jr              t0

----------------
IN: 
0x00000000800067fe:  f0050c53          fmv.s.x         fs8,a0
0x0000000080006802:  00028067          jr              t0

----------------
IN: 
0x0000000080006806:  f0050cd3          fmv.s.x         fs9,a0
0x000000008000680a:  00028067          jr              t0

----------------
IN: 
0x000000008000680e:  f0050d53          fmv.s.x         fs10,a0
0x0000000080006812:  00028067          jr              t0

----------------
IN: 
0x0000000080006816:  f0050dd3          fmv.s.x         fs11,a0
0x000000008000681a:  00028067          jr              t0

----------------
IN: 
0x000000008000681e:  f0050e53          fmv.s.x         ft8,a0
0x0000000080006822:  00028067          jr              t0

----------------
IN: 
0x0000000080006826:  f0050ed3          fmv.s.x         ft9,a0
0x000000008000682a:  00028067          jr              t0

----------------
IN: 
0x000000008000682e:  f0050f53          fmv.s.x         ft10,a0
0x0000000080006832:  00028067          jr              t0

----------------
IN: 
0x0000000080006836:  f0050fd3          fmv.s.x         ft11,a0
0x000000008000683a:  00028067          jr              t0

----------------
IN: 
0x0000000080004c66:  00305073          csrrwi          zero,fcsr,0

----------------
IN: 
0x0000000080004c6a:  0314c783          lbu             a5,49(s1)
0x0000000080004c6e:  0304c703          lbu             a4,48(s1)
0x0000000080004c72:  0324c583          lbu             a1,50(s1)
0x0000000080004c76:  0334c603          lbu             a2,51(s1)
0x0000000080004c7a:  0344c683          lbu             a3,52(s1)
0x0000000080004c7e:  07a2              slli            a5,a5,8
0x0000000080004c80:  8fd9              or              a5,a5,a4
0x0000000080004c82:  05c2              slli            a1,a1,16
0x0000000080004c84:  0354c703          lbu             a4,53(s1)
0x0000000080004c88:  8ddd              or              a1,a1,a5
0x0000000080004c8a:  0662              slli            a2,a2,24
0x0000000080004c8c:  0364c783          lbu             a5,54(s1)
0x0000000080004c90:  8e4d              or              a2,a2,a1
0x0000000080004c92:  1682              slli            a3,a3,32
0x0000000080004c94:  0374c583          lbu             a1,55(s1)
0x0000000080004c98:  8ed1              or              a3,a3,a2
0x0000000080004c9a:  1722              slli            a4,a4,40
0x0000000080004c9c:  8f55              or              a4,a4,a3
0x0000000080004c9e:  17c2              slli            a5,a5,48
0x0000000080004ca0:  8fd9              or              a5,a5,a4
0x0000000080004ca2:  03859713          slli            a4,a1,56
0x0000000080004ca6:  8fd9              or              a5,a5,a4
0x0000000080004ca8:  30102773          csrrs           a4,misa,zero

----------------
IN: 
0x0000000080004cac:  02d71693          slli            a3,a4,45
0x0000000080004cb0:  0206da63          bgez            a3,52           # 0x80004ce4

----------------
IN: 
0x0000000080004cb4:  0487c703          lbu             a4,72(a5)
0x0000000080004cb8:  10900793          addi            a5,zero,265
0x0000000080004cbc:  02077713          andi            a4,a4,32
0x0000000080004cc0:  c701              beqz            a4,8            # 0x80004cc8

----------------
IN: 
0x0000000080004cc2:  67ad              lui             a5,45056
0x0000000080004cc4:  10978793          addi            a5,a5,265
0x0000000080004cc8:  22200713          addi            a4,zero,546
0x0000000080004ccc:  30371073          csrrw           zero,mideleg,a4

----------------
IN: 
0x0000000080004cd0:  30279073          csrrw           zero,medeleg,a5

----------------
IN: 
0x0000000080004cd4:  303026f3          csrrs           a3,mideleg,zero

----------------
IN: 
0x0000000080004cd8:  26e69963          bne             a3,a4,626       # 0x80004f4a

----------------
IN: 
0x0000000080004cdc:  30202773          csrrs           a4,medeleg,zero

----------------
IN: 
0x0000000080004ce0:  26e79563          bne             a5,a4,618       # 0x80004f4a

----------------
IN: 
0x0000000080004ce4:  0314c783          lbu             a5,49(s1)
0x0000000080004ce8:  0304c903          lbu             s2,48(s1)
0x0000000080004cec:  0324c603          lbu             a2,50(s1)
0x0000000080004cf0:  0334c683          lbu             a3,51(s1)
0x0000000080004cf4:  07a2              slli            a5,a5,8
0x0000000080004cf6:  0344c703          lbu             a4,52(s1)
0x0000000080004cfa:  0127e7b3          or              a5,a5,s2
0x0000000080004cfe:  0642              slli            a2,a2,16
0x0000000080004d00:  0354c903          lbu             s2,53(s1)
0x0000000080004d04:  8e5d              or              a2,a2,a5
0x0000000080004d06:  06e2              slli            a3,a3,24
0x0000000080004d08:  0364c783          lbu             a5,54(s1)
0x0000000080004d0c:  8ed1              or              a3,a3,a2
0x0000000080004d0e:  1702              slli            a4,a4,32
0x0000000080004d10:  0374c603          lbu             a2,55(s1)
0x0000000080004d14:  8f55              or              a4,a4,a3
0x0000000080004d16:  1922              slli            s2,s2,40
0x0000000080004d18:  00e96933          or              s2,s2,a4
0x0000000080004d1c:  17c2              slli            a5,a5,48
0x0000000080004d1e:  0127e7b3          or              a5,a5,s2
0x0000000080004d22:  03861913          slli            s2,a2,56
0x0000000080004d26:  00f96933          or              s2,s2,a5
0x0000000080004d2a:  04894783          lbu             a5,72(s2)
0x0000000080004d2e:  8b91              andi            a5,a5,4
0x0000000080004d30:  1e078463          beqz            a5,488          # 0x80004f18

----------------
IN: 
0x0000000080004d34:  0094c703          lbu             a4,9(s1)
0x0000000080004d38:  0084c683          lbu             a3,8(s1)
0x0000000080004d3c:  00a4c783          lbu             a5,10(s1)
0x0000000080004d40:  00b4c583          lbu             a1,11(s1)
0x0000000080004d44:  0722              slli            a4,a4,8
0x0000000080004d46:  00c4c603          lbu             a2,12(s1)
0x0000000080004d4a:  8f55              or              a4,a4,a3
0x0000000080004d4c:  07c2              slli            a5,a5,16
0x0000000080004d4e:  00d4c683          lbu             a3,13(s1)
0x0000000080004d52:  8fd9              or              a5,a5,a4
0x0000000080004d54:  05e2              slli            a1,a1,24
0x0000000080004d56:  00e4c703          lbu             a4,14(s1)
0x0000000080004d5a:  8ddd              or              a1,a1,a5
0x0000000080004d5c:  1602              slli            a2,a2,32
0x0000000080004d5e:  00f4c783          lbu             a5,15(s1)
0x0000000080004d62:  8e4d              or              a2,a2,a1
0x0000000080004d64:  16a2              slli            a3,a3,40
0x0000000080004d66:  8ed1              or              a3,a3,a2
0x0000000080004d68:  1742              slli            a4,a4,48
0x0000000080004d6a:  8f55              or              a4,a4,a3
0x0000000080004d6c:  17e2              slli            a5,a5,56
0x0000000080004d6e:  8fd9              or              a5,a5,a4
0x0000000080004d70:  4681              mv              a3,zero
0x0000000080004d72:  4585              addi            a1,zero,1
0x0000000080004d74:  04000713          addi            a4,zero,64
0x0000000080004d78:  a021              j               8               # 0x80004d80

----------------
IN: 
0x0000000080004d80:  00d59633          sll             a2,a1,a3
0x0000000080004d84:  fef66be3          bgtu            a5,a2,-10       # 0x80004d7a

----------------
IN: 
0x0000000080004d7a:  0685              addi            a3,a3,1
0x0000000080004d7c:  1ce68563          beq             a3,a4,458       # 0x80004f46

----------------
IN: 
0x0000000080004d88:  40c00633          neg             a2,a2
0x0000000080004d8c:  0014c703          lbu             a4,1(s1)
0x0000000080004d90:  0004c583          lbu             a1,0(s1)
0x0000000080004d94:  0024c783          lbu             a5,2(s1)
0x0000000080004d98:  0034c803          lbu             a6,3(s1)
0x0000000080004d9c:  0722              slli            a4,a4,8
0x0000000080004d9e:  0044c503          lbu             a0,4(s1)
0x0000000080004da2:  8f4d              or              a4,a4,a1
0x0000000080004da4:  07c2              slli            a5,a5,16
0x0000000080004da6:  0054c583          lbu             a1,5(s1)
0x0000000080004daa:  8fd9              or              a5,a5,a4
0x0000000080004dac:  0862              slli            a6,a6,24
0x0000000080004dae:  0064c703          lbu             a4,6(s1)
0x0000000080004db2:  00f86833          or              a6,a6,a5
0x0000000080004db6:  1502              slli            a0,a0,32
0x0000000080004db8:  0074c783          lbu             a5,7(s1)
0x0000000080004dbc:  01056533          or              a0,a0,a6
0x0000000080004dc0:  15a2              slli            a1,a1,40
0x0000000080004dc2:  8dc9              or              a1,a1,a0
0x0000000080004dc4:  1742              slli            a4,a4,48
0x0000000080004dc6:  8f4d              or              a4,a4,a1
0x0000000080004dc8:  17e2              slli            a5,a5,56
0x0000000080004dca:  8fd9              or              a5,a5,a4
0x0000000080004dcc:  8e7d              and             a2,a2,a5
0x0000000080004dce:  4581              mv              a1,zero
0x0000000080004dd0:  4501              mv              a0,zero
0x0000000080004dd2:  6ae010ef          jal             ra,5806         # 0x80006480

----------------
IN: 
0x0000000080006480:  47bd              addi            a5,zero,15
0x0000000080006482:  0ea7e063          bgtu            a0,a5,224       # 0x80006562

----------------
IN: 
0x0000000080006486:  ffe68793          addi            a5,a3,-2
0x000000008000648a:  03e00713          addi            a4,zero,62
0x000000008000648e:  0cf76a63          bgtu            a5,a4,212       # 0x80006562

----------------
IN: 
0x0000000080006492:  715d              addi            sp,sp,-80
0x0000000080006494:  fc26              sd              s1,56(sp)
0x0000000080006496:  84ae              mv              s1,a1
0x0000000080006498:  0035159b          slliw           a1,a0,3
0x000000008000649c:  ec56              sd              s5,24(sp)
0x000000008000649e:  e45e              sd              s7,8(sp)
0x00000000800064a0:  00255a9b          srliw           s5,a0,2
0x00000000800064a4:  0385fb93          andi            s7,a1,56
0x00000000800064a8:  0ff00793          addi            a5,zero,255
0x00000000800064ac:  e0a2              sd              s0,64(sp)
0x00000000800064ae:  f84a              sd              s2,48(sp)
0x00000000800064b0:  f44e              sd              s3,40(sp)
0x00000000800064b2:  f052              sd              s4,32(sp)
0x00000000800064b4:  e85a              sd              s6,16(sp)
0x00000000800064b6:  e486              sd              ra,72(sp)
0x00000000800064b8:  0880              addi            s0,sp,80
0x00000000800064ba:  3a0a8a9b          addiw           s5,s5,928
0x00000000800064be:  017797bb          sllw            a5,a5,s7
0x00000000800064c2:  ffeafa93          andi            s5,s5,-2
0x00000000800064c6:  fff7c793          not             a5,a5
0x00000000800064ca:  4709              addi            a4,zero,2
0x00000000800064cc:  8b36              mv              s6,a3
0x00000000800064ce:  89b2              mv              s3,a2
0x00000000800064d0:  2a81              sext.w          s5,s5
0x00000000800064d2:  3b050a1b          addiw           s4,a0,944
0x00000000800064d6:  0007891b          sext.w          s2,a5
0x00000000800064da:  06e68563          beq             a3,a4,106       # 0x80006544

----------------
IN: 
0x00000000800064de:  8556              mv              a0,s5
0x00000000800064e0:  e51ff0ef          jal             ra,-432         # 0x80006330

----------------
IN: 
0x0000000080006330:  1141              addi            sp,sp,-16
0x0000000080006332:  e422              sd              s0,8(sp)
0x0000000080006334:  c605051b          addiw           a0,a0,-928
0x0000000080006338:  0800              addi            s0,sp,16
0x000000008000633a:  0005071b          sext.w          a4,a0
0x000000008000633e:  47fd              addi            a5,zero,31
0x0000000080006340:  08e7eb63          bgtu            a4,a5,150       # 0x800063d6

----------------
IN: 
0x0000000080006344:  1502              slli            a0,a0,32
0x0000000080006346:  9101              srli            a0,a0,32
0x0000000080006348:  00003717          auipc           a4,12288        # 0x80009348
0x000000008000634c:  53c70713          addi            a4,a4,1340
0x0000000080006350:  050a              slli            a0,a0,2
0x0000000080006352:  953a              add             a0,a0,a4
0x0000000080006354:  411c              lw              a5,0(a0)
0x0000000080006356:  97ba              add             a5,a5,a4
0x0000000080006358:  8782              jr              a5

----------------
IN: 
0x00000000800063d0:  3a002573          csrrs           a0,pmpcfg3,zero

----------------
IN: 
0x00000000800063d4:  b769              j               -118            # 0x8000635e

----------------
IN: 
0x000000008000635e:  6422              ld              s0,8(sp)
0x0000000080006360:  0141              addi            sp,sp,16
0x0000000080006362:  8082              ret             

----------------
IN: 
0x00000000800064e4:  0184e593          ori             a1,s1,24
0x00000000800064e8:  017595b3          sll             a1,a1,s7
0x00000000800064ec:  8d2d              xor             a0,a0,a1
0x00000000800064ee:  01257933          and             s2,a0,s2
0x00000000800064f2:  04000793          addi            a5,zero,64
0x00000000800064f6:  00b94933          xor             s2,s2,a1
0x00000000800064fa:  55fd              addi            a1,zero,-1
0x00000000800064fc:  02fb0163          beq             s6,a5,34        # 0x8000651e

----------------
IN: 
0x0000000080006500:  4585              addi            a1,zero,1
0x0000000080006502:  3b79              addiw           s6,s6,-2
0x0000000080006504:  01659b33          sll             s6,a1,s6
0x0000000080006508:  0029d993          srli            s3,s3,2
0x000000008000650c:  41600633          neg             a2,s6
0x0000000080006510:  fffb0593          addi            a1,s6,-1
0x0000000080006514:  00c9f9b3          and             s3,s3,a2
0x0000000080006518:  8185              srli            a1,a1,1
0x000000008000651a:  0135e5b3          or              a1,a1,s3
0x000000008000651e:  8552              mv              a0,s4
0x0000000080006520:  ebbff0ef          jal             ra,-326         # 0x800063da

----------------
IN: 
0x00000000800063da:  1141              addi            sp,sp,-16
0x00000000800063dc:  e422              sd              s0,8(sp)
0x00000000800063de:  c605051b          addiw           a0,a0,-928
0x00000000800063e2:  0800              addi            s0,sp,16
0x00000000800063e4:  0005071b          sext.w          a4,a0
0x00000000800063e8:  47fd              addi            a5,zero,31
0x00000000800063ea:  00e7ef63          bgtu            a4,a5,30        # 0x80006408

----------------
IN: 
0x00000000800063ee:  1502              slli            a0,a0,32
0x00000000800063f0:  9101              srli            a0,a0,32
0x00000000800063f2:  00003717          auipc           a4,12288        # 0x800093f2
0x00000000800063f6:  51270713          addi            a4,a4,1298
0x00000000800063fa:  050a              slli            a0,a0,2
0x00000000800063fc:  953a              add             a0,a0,a4
0x00000000800063fe:  411c              lw              a5,0(a0)
0x0000000080006400:  97ba              add             a5,a5,a4
0x0000000080006402:  8782              jr              a5

----------------
IN: 
0x0000000080006462:  3b059073          csrrw           zero,pmpaddr0,a1

----------------
IN: 
0x0000000080006466:  b74d              j               -94             # 0x80006408

----------------
IN: 
0x0000000080006408:  6422              ld              s0,8(sp)
0x000000008000640a:  0141              addi            sp,sp,16
0x000000008000640c:  8082              ret             

----------------
IN: 
0x0000000080006524:  8556              mv              a0,s5
0x0000000080006526:  85ca              mv              a1,s2
0x0000000080006528:  eb3ff0ef          jal             ra,-334         # 0x800063da

----------------
IN: 
0x000000008000647a:  3a059073          csrrw           zero,pmpcfg3,a1

----------------
IN: 
0x000000008000647e:  b769              j               -118            # 0x80006408

----------------
IN: 
0x000000008000652c:  60a6              ld              ra,72(sp)
0x000000008000652e:  6406              ld              s0,64(sp)
0x0000000080006530:  74e2              ld              s1,56(sp)
0x0000000080006532:  7942              ld              s2,48(sp)
0x0000000080006534:  79a2              ld              s3,40(sp)
0x0000000080006536:  7a02              ld              s4,32(sp)
0x0000000080006538:  6ae2              ld              s5,24(sp)
0x000000008000653a:  6b42              ld              s6,16(sp)
0x000000008000653c:  6ba2              ld              s7,8(sp)
0x000000008000653e:  4501              mv              a0,zero
0x0000000080006540:  6161              addi            sp,sp,80
0x0000000080006542:  8082              ret             

----------------
IN: 
0x0000000080004dd6:  14090163          beqz            s2,322          # 0x80004f18

----------------
IN: 
0x0000000080004dda:  06194703          lbu             a4,97(s2)
0x0000000080004dde:  06094683          lbu             a3,96(s2)
0x0000000080004de2:  06294783          lbu             a5,98(s2)
0x0000000080004de6:  06394583          lbu             a1,99(s2)
0x0000000080004dea:  0722              slli            a4,a4,8
0x0000000080004dec:  06494603          lbu             a2,100(s2)
0x0000000080004df0:  8f55              or              a4,a4,a3
0x0000000080004df2:  07c2              slli            a5,a5,16
0x0000000080004df4:  06594683          lbu             a3,101(s2)
0x0000000080004df8:  8fd9              or              a5,a5,a4
0x0000000080004dfa:  05e2              slli            a1,a1,24
0x0000000080004dfc:  06694703          lbu             a4,102(s2)
0x0000000080004e00:  8ddd              or              a1,a1,a5
0x0000000080004e02:  1602              slli            a2,a2,32
0x0000000080004e04:  06794783          lbu             a5,103(s2)
0x0000000080004e08:  8e4d              or              a2,a2,a1
0x0000000080004e0a:  16a2              slli            a3,a3,40
0x0000000080004e0c:  8ed1              or              a3,a3,a2
0x0000000080004e0e:  1742              slli            a4,a4,48
0x0000000080004e10:  8f55              or              a4,a4,a3
0x0000000080004e12:  17e2              slli            a5,a5,56
0x0000000080004e14:  8fd9              or              a5,a5,a4
0x0000000080004e16:  0117c703          lbu             a4,17(a5)
0x0000000080004e1a:  0107c683          lbu             a3,16(a5)
0x0000000080004e1e:  0127c503          lbu             a0,18(a5)
0x0000000080004e22:  0137c583          lbu             a1,19(a5)
0x0000000080004e26:  0147c603          lbu             a2,20(a5)
0x0000000080004e2a:  0722              slli            a4,a4,8
0x0000000080004e2c:  8f55              or              a4,a4,a3
0x0000000080004e2e:  0542              slli            a0,a0,16
0x0000000080004e30:  0157c683          lbu             a3,21(a5)
0x0000000080004e34:  8d59              or              a0,a0,a4
0x0000000080004e36:  05e2              slli            a1,a1,24
0x0000000080004e38:  0167c703          lbu             a4,22(a5)
0x0000000080004e3c:  8dc9              or              a1,a1,a0
0x0000000080004e3e:  1602              slli            a2,a2,32
0x0000000080004e40:  0177c783          lbu             a5,23(a5)
0x0000000080004e44:  8e4d              or              a2,a2,a1
0x0000000080004e46:  16a2              slli            a3,a3,40
0x0000000080004e48:  8ed1              or              a3,a3,a2
0x0000000080004e4a:  1742              slli            a4,a4,48
0x0000000080004e4c:  8f55              or              a4,a4,a3
0x0000000080004e4e:  17e2              slli            a5,a5,56
0x0000000080004e50:  8fd9              or              a5,a5,a4
0x0000000080004e52:  c3f9              beqz            a5,198          # 0x80004f18

----------------
IN: 
0x0000000080004e54:  854e              mv              a0,s3
0x0000000080004e56:  9782              jalr            ra,a5,0

----------------
IN: 
0x0000000080002f4c:  1141              addi            sp,sp,-16
0x0000000080002f4e:  e422              sd              s0,8(sp)
0x0000000080002f50:  0800              addi            s0,sp,16
0x0000000080002f52:  6422              ld              s0,8(sp)
0x0000000080002f54:  4505              addi            a0,zero,1
0x0000000080002f56:  0141              addi            sp,sp,16
0x0000000080002f58:  8082              ret             

----------------
IN: 
0x0000000080004e58:  2501              sext.w          a0,a0
0x0000000080004e5a:  47bd              addi            a5,zero,15
0x0000000080004e5c:  0005049b          sext.w          s1,a0
0x0000000080004e60:  00a7f363          bleu            a0,a5,6         # 0x80004e66

----------------
IN: 
0x0000000080004e66:  c94d              beqz            a0,178          # 0x80004f18

----------------
IN: 
0x0000000080004e68:  4a01              mv              s4,zero
0x0000000080004e6a:  06194703          lbu             a4,97(s2)
0x0000000080004e6e:  06094683          lbu             a3,96(s2)
0x0000000080004e72:  06294783          lbu             a5,98(s2)
0x0000000080004e76:  06394583          lbu             a1,99(s2)
0x0000000080004e7a:  0722              slli            a4,a4,8
0x0000000080004e7c:  06494603          lbu             a2,100(s2)
0x0000000080004e80:  8f55              or              a4,a4,a3
0x0000000080004e82:  07c2              slli            a5,a5,16
0x0000000080004e84:  06594683          lbu             a3,101(s2)
0x0000000080004e88:  8fd9              or              a5,a5,a4
0x0000000080004e8a:  05e2              slli            a1,a1,24
0x0000000080004e8c:  06694703          lbu             a4,102(s2)
0x0000000080004e90:  8ddd              or              a1,a1,a5
0x0000000080004e92:  1602              slli            a2,a2,32
0x0000000080004e94:  06794783          lbu             a5,103(s2)
0x0000000080004e98:  8e4d              or              a2,a2,a1
0x0000000080004e9a:  16a2              slli            a3,a3,40
0x0000000080004e9c:  8ed1              or              a3,a3,a2
0x0000000080004e9e:  1742              slli            a4,a4,48
0x0000000080004ea0:  8f55              or              a4,a4,a3
0x0000000080004ea2:  17e2              slli            a5,a5,56
0x0000000080004ea4:  8fd9              or              a5,a5,a4
0x0000000080004ea6:  0197c883          lbu             a7,25(a5)
0x0000000080004eaa:  0187c703          lbu             a4,24(a5)
0x0000000080004eae:  01a7c583          lbu             a1,26(a5)
0x0000000080004eb2:  01b7c603          lbu             a2,27(a5)
0x0000000080004eb6:  01c7c683          lbu             a3,28(a5)
0x0000000080004eba:  08a2              slli            a7,a7,8
0x0000000080004ebc:  00e8e8b3          or              a7,a7,a4
0x0000000080004ec0:  05c2              slli            a1,a1,16
0x0000000080004ec2:  01d7c703          lbu             a4,29(a5)
0x0000000080004ec6:  0115e5b3          or              a1,a1,a7
0x0000000080004eca:  0662              slli            a2,a2,24
0x0000000080004ecc:  01e7c883          lbu             a7,30(a5)
0x0000000080004ed0:  8e4d              or              a2,a2,a1
0x0000000080004ed2:  1682              slli            a3,a3,32
0x0000000080004ed4:  01f7c783          lbu             a5,31(a5)
0x0000000080004ed8:  8ed1              or              a3,a3,a2
0x0000000080004eda:  1722              slli            a4,a4,40
0x0000000080004edc:  8f55              or              a4,a4,a3
0x0000000080004ede:  18c2              slli            a7,a7,48
0x0000000080004ee0:  00e8e8b3          or              a7,a7,a4
0x0000000080004ee4:  17e2              slli            a5,a5,56
0x0000000080004ee6:  0117e7b3          or              a5,a5,a7
0x0000000080004eea:  85d2              mv              a1,s4
0x0000000080004eec:  fc840713          addi            a4,s0,-56
0x0000000080004ef0:  fc040693          addi            a3,s0,-64
0x0000000080004ef4:  fb840613          addi            a2,s0,-72
0x0000000080004ef8:  854e              mv              a0,s3
0x0000000080004efa:  2a05              addiw           s4,s4,1
0x0000000080004efc:  c399              beqz            a5,6            # 0x80004f02

----------------
IN: 
0x0000000080004efe:  9782              jalr            ra,a5,0

----------------
IN: 
0x0000000080002f5a:  1141              addi            sp,sp,-16
0x0000000080002f5c:  e422              sd              s0,8(sp)
0x0000000080002f5e:  0800              addi            s0,sp,16
0x0000000080002f60:  ed81              bnez            a1,24           # 0x80002f78

----------------
IN: 
0x0000000080002f62:  479d              addi            a5,zero,7
0x0000000080002f64:  e21c              sd              a5,0(a2)
0x0000000080002f66:  0006b023          sd              zero,0(a3)
0x0000000080002f6a:  04000793          addi            a5,zero,64
0x0000000080002f6e:  e31c              sd              a5,0(a4)
0x0000000080002f70:  4501              mv              a0,zero
0x0000000080002f72:  6422              ld              s0,8(sp)
0x0000000080002f74:  0141              addi            sp,sp,16
0x0000000080002f76:  8082              ret             

----------------
IN: 
0x0000000080004f00:  e911              bnez            a0,20           # 0x80004f14

----------------
IN: 
0x0000000080004f02:  fc843683          ld              a3,-56(s0)
0x0000000080004f06:  fc043603          ld              a2,-64(s0)
0x0000000080004f0a:  fb843583          ld              a1,-72(s0)
0x0000000080004f0e:  8552              mv              a0,s4
0x0000000080004f10:  570010ef          jal             ra,5488         # 0x80006480

----------------
IN: 
0x000000008000651e:  8552              mv              a0,s4
0x0000000080006520:  ebbff0ef          jal             ra,-326         # 0x800063da

----------------
IN: 
0x000000008000645c:  3b159073          csrrw           zero,pmpaddr1,a1

----------------
IN: 
0x0000000080006460:  b765              j               -88             # 0x80006408

----------------
IN: 
0x0000000080004f14:  f49a6be3          bgtu            s1,s4,-170      # 0x80004e6a

----------------
IN: 
0x0000000080004f18:  4501              mv              a0,zero
0x0000000080004f1a:  60a6              ld              ra,72(sp)
0x0000000080004f1c:  6406              ld              s0,64(sp)
0x0000000080004f1e:  74e2              ld              s1,56(sp)
0x0000000080004f20:  7942              ld              s2,48(sp)
0x0000000080004f22:  79a2              ld              s3,40(sp)
0x0000000080004f24:  7a02              ld              s4,32(sp)
0x0000000080004f26:  6161              addi            sp,sp,80
0x0000000080004f28:  8082              ret             

----------------
IN: 
0x000000008000085a:  f14d              bnez            a0,-94          # 0x800007fc

----------------
IN: 
0x000000008000085c:  8526              mv              a0,s1
0x000000008000085e:  05f030ef          jal             ra,14430        # 0x800040bc

----------------
IN: 
0x00000000800040bc:  03154783          lbu             a5,49(a0)
0x00000000800040c0:  03054703          lbu             a4,48(a0)
0x00000000800040c4:  03254803          lbu             a6,50(a0)
0x00000000800040c8:  03354583          lbu             a1,51(a0)
0x00000000800040cc:  03454603          lbu             a2,52(a0)
0x00000000800040d0:  07a2              slli            a5,a5,8
0x00000000800040d2:  8fd9              or              a5,a5,a4
0x00000000800040d4:  03554683          lbu             a3,53(a0)
0x00000000800040d8:  0842              slli            a6,a6,16
0x00000000800040da:  03654703          lbu             a4,54(a0)
0x00000000800040de:  00f86833          or              a6,a6,a5
0x00000000800040e2:  05e2              slli            a1,a1,24
0x00000000800040e4:  03754783          lbu             a5,55(a0)
0x00000000800040e8:  0105e5b3          or              a1,a1,a6
0x00000000800040ec:  1602              slli            a2,a2,32
0x00000000800040ee:  8e4d              or              a2,a2,a1
0x00000000800040f0:  16a2              slli            a3,a3,40
0x00000000800040f2:  8ed1              or              a3,a3,a2
0x00000000800040f4:  1742              slli            a4,a4,48
0x00000000800040f6:  8f55              or              a4,a4,a3
0x00000000800040f8:  17e2              slli            a5,a5,56
0x00000000800040fa:  8fd9              or              a5,a5,a4
0x00000000800040fc:  00007717          auipc           a4,28672        # 0x8000b0fc
0x0000000080004100:  f2f73a23          sd              a5,-204(a4)
0x0000000080004104:  cbc9              beqz            a5,146          # 0x80004196

----------------
IN: 
0x0000000080004106:  0617c703          lbu             a4,97(a5)
0x000000008000410a:  0607c683          lbu             a3,96(a5)
0x000000008000410e:  0627c503          lbu             a0,98(a5)
0x0000000080004112:  0637c583          lbu             a1,99(a5)
0x0000000080004116:  0647c603          lbu             a2,100(a5)
0x000000008000411a:  0722              slli            a4,a4,8
0x000000008000411c:  8f55              or              a4,a4,a3
0x000000008000411e:  0542              slli            a0,a0,16
0x0000000080004120:  0657c683          lbu             a3,101(a5)
0x0000000080004124:  8d59              or              a0,a0,a4
0x0000000080004126:  05e2              slli            a1,a1,24
0x0000000080004128:  0667c703          lbu             a4,102(a5)
0x000000008000412c:  8dc9              or              a1,a1,a0
0x000000008000412e:  1602              slli            a2,a2,32
0x0000000080004130:  0677c783          lbu             a5,103(a5)
0x0000000080004134:  8e4d              or              a2,a2,a1
0x0000000080004136:  16a2              slli            a3,a3,40
0x0000000080004138:  8ed1              or              a3,a3,a2
0x000000008000413a:  1742              slli            a4,a4,48
0x000000008000413c:  8f55              or              a4,a4,a3
0x000000008000413e:  17e2              slli            a5,a5,56
0x0000000080004140:  8fd9              or              a5,a5,a4
0x0000000080004142:  0317c703          lbu             a4,49(a5)
0x0000000080004146:  0307c683          lbu             a3,48(a5)
0x000000008000414a:  0327c503          lbu             a0,50(a5)
0x000000008000414e:  0337c583          lbu             a1,51(a5)
0x0000000080004152:  0347c603          lbu             a2,52(a5)
0x0000000080004156:  0722              slli            a4,a4,8
0x0000000080004158:  8f55              or              a4,a4,a3
0x000000008000415a:  0542              slli            a0,a0,16
0x000000008000415c:  0357c683          lbu             a3,53(a5)
0x0000000080004160:  8d59              or              a0,a0,a4
0x0000000080004162:  05e2              slli            a1,a1,24
0x0000000080004164:  0367c703          lbu             a4,54(a5)
0x0000000080004168:  8dc9              or              a1,a1,a0
0x000000008000416a:  1602              slli            a2,a2,32
0x000000008000416c:  0377c783          lbu             a5,55(a5)
0x0000000080004170:  8e4d              or              a2,a2,a1
0x0000000080004172:  16a2              slli            a3,a3,40
0x0000000080004174:  8ed1              or              a3,a3,a2
0x0000000080004176:  1742              slli            a4,a4,48
0x0000000080004178:  8f55              or              a4,a4,a3
0x000000008000417a:  17e2              slli            a5,a5,56
0x000000008000417c:  8fd9              or              a5,a5,a4
0x000000008000417e:  4501              mv              a0,zero
0x0000000080004180:  cb91              beqz            a5,20           # 0x80004194

----------------
IN: 
0x0000000080004182:  1141              addi            sp,sp,-16
0x0000000080004184:  e022              sd              s0,0(sp)
0x0000000080004186:  e406              sd              ra,8(sp)
0x0000000080004188:  0800              addi            s0,sp,16
0x000000008000418a:  9782              jalr            ra,a5,0

----------------
IN: 
0x0000000080003024:  1141              addi            sp,sp,-16
0x0000000080003026:  e022              sd              s0,0(sp)
0x0000000080003028:  e406              sd              ra,8(sp)
0x000000008000302a:  0800              addi            s0,sp,16
0x000000008000302c:  6671              lui             a2,114688
0x000000008000302e:  4705              addi            a4,zero,1
0x0000000080003030:  4681              mv              a3,zero
0x0000000080003032:  20060613          addi            a2,a2,512
0x0000000080003036:  001c25b7          lui             a1,1843200
0x000000008000303a:  10000537          lui             a0,268435456
0x000000008000303e:  02a030ef          jal             ra,12330        # 0x80006068

----------------
IN: 
0x0000000080006068:  1101              addi            sp,sp,-32
0x000000008000606a:  0046161b          slliw           a2,a2,4
0x000000008000606e:  e426              sd              s1,8(sp)
0x0000000080006070:  02c5d4bb          divuw           s1,a1,a2
0x0000000080006074:  ec06              sd              ra,24(sp)
0x0000000080006076:  e822              sd              s0,16(sp)
0x0000000080006078:  1000              addi            s0,sp,32
0x000000008000607a:  00005797          auipc           a5,20480        # 0x8000b07a
0x000000008000607e:  02a7b323          sd              a0,38(a5)
0x0000000080006082:  4581              mv              a1,zero
0x0000000080006084:  4505              addi            a0,zero,1
0x0000000080006086:  00005797          auipc           a5,20480        # 0x8000b086
0x000000008000608a:  00d7a923          sw              a3,18(a5)
0x000000008000608e:  00005797          auipc           a5,20480        # 0x8000b08e
0x0000000080006092:  00e7a723          sw              a4,14(a5)
0x0000000080006096:  f09ff0ef          jal             ra,-248         # 0x80005f9e

----------------
IN: 
0x0000000080005f9e:  1141              addi            sp,sp,-16
0x0000000080005fa0:  e422              sd              s0,8(sp)
0x0000000080005fa2:  0800              addi            s0,sp,16
0x0000000080005fa4:  00005797          auipc           a5,20480        # 0x8000afa4
0x0000000080005fa8:  0f478793          addi            a5,a5,244
0x0000000080005fac:  439c              lw              a5,0(a5)
0x0000000080005fae:  00005717          auipc           a4,20480        # 0x8000afae
0x0000000080005fb2:  0ee70713          addi            a4,a4,238
0x0000000080005fb6:  4318              lw              a4,0(a4)
0x0000000080005fb8:  00f5153b          sllw            a0,a0,a5
0x0000000080005fbc:  1502              slli            a0,a0,32
0x0000000080005fbe:  4685              addi            a3,zero,1
0x0000000080005fc0:  9101              srli            a0,a0,32
0x0000000080005fc2:  02d70e63          beq             a4,a3,60        # 0x80005ffe

----------------
IN: 
0x0000000080005ffe:  0140000f          fence           w,o

----------------
IN: 
0x0000000080006002:  00005797          auipc           a5,20480        # 0x8000b002
0x0000000080006006:  09e78793          addi            a5,a5,158
0x000000008000600a:  639c              ld              a5,0(a5)
0x000000008000600c:  953e              add             a0,a0,a5
0x000000008000600e:  00b50023          sb              a1,0(a0)
0x0000000080006012:  6422              ld              s0,8(sp)
0x0000000080006014:  0141              addi            sp,sp,16
0x0000000080006016:  8082              ret             

----------------
IN: 
0x000000008000609a:  08000593          addi            a1,zero,128
0x000000008000609e:  450d              addi            a0,zero,3
0x00000000800060a0:  effff0ef          jal             ra,-258         # 0x80005f9e

----------------
IN: 
0x00000000800060a4:  4501              mv              a0,zero
0x00000000800060a6:  0ff4f593          andi            a1,s1,255
0x00000000800060aa:  2481              sext.w          s1,s1
0x00000000800060ac:  0104949b          slliw           s1,s1,16
0x00000000800060b0:  eefff0ef          jal             ra,-274         # 0x80005f9e

----------------
IN: 
0x00000000800060b4:  0104d49b          srliw           s1,s1,16
0x00000000800060b8:  0084d593          srli            a1,s1,8
0x00000000800060bc:  4505              addi            a0,zero,1
0x00000000800060be:  ee1ff0ef          jal             ra,-288         # 0x80005f9e

----------------
IN: 
0x00000000800060c2:  458d              addi            a1,zero,3
0x00000000800060c4:  450d              addi            a0,zero,3
0x00000000800060c6:  ed9ff0ef          jal             ra,-296         # 0x80005f9e

----------------
IN: 
0x00000000800060ca:  4585              addi            a1,zero,1
0x00000000800060cc:  4509              addi            a0,zero,2
0x00000000800060ce:  ed1ff0ef          jal             ra,-304         # 0x80005f9e

----------------
IN: 
0x00000000800060d2:  4581              mv              a1,zero
0x00000000800060d4:  4511              addi            a0,zero,4
0x00000000800060d6:  ec9ff0ef          jal             ra,-312         # 0x80005f9e

----------------
IN: 
0x00000000800060da:  4515              addi            a0,zero,5
0x00000000800060dc:  e51ff0ef          jal             ra,-432         # 0x80005f2c

----------------
IN: 
0x0000000080005f2c:  1141              addi            sp,sp,-16
0x0000000080005f2e:  e422              sd              s0,8(sp)
0x0000000080005f30:  0800              addi            s0,sp,16
0x0000000080005f32:  00005797          auipc           a5,20480        # 0x8000af32
0x0000000080005f36:  16678793          addi            a5,a5,358
0x0000000080005f3a:  4398              lw              a4,0(a5)
0x0000000080005f3c:  00005697          auipc           a3,20480        # 0x8000af3c
0x0000000080005f40:  16068693          addi            a3,a3,352
0x0000000080005f44:  00005797          auipc           a5,20480        # 0x8000af44
0x0000000080005f48:  15c78793          addi            a5,a5,348
0x0000000080005f4c:  00e5153b          sllw            a0,a0,a4
0x0000000080005f50:  639c              ld              a5,0(a5)
0x0000000080005f52:  4294              lw              a3,0(a3)
0x0000000080005f54:  1502              slli            a0,a0,32
0x0000000080005f56:  9101              srli            a0,a0,32
0x0000000080005f58:  4705              addi            a4,zero,1
0x0000000080005f5a:  97aa              add             a5,a5,a0
0x0000000080005f5c:  02e68763          beq             a3,a4,46        # 0x80005f8a

----------------
IN: 
0x0000000080005f8a:  00078503          lb              a0,0(a5)
0x0000000080005f8e:  0ff57513          andi            a0,a0,255
0x0000000080005f92:  0820000f          fence           i,r
0x0000000080005f96:  6422              ld              s0,8(sp)
0x0000000080005f98:  2501              sext.w          a0,a0
0x0000000080005f9a:  0141              addi            sp,sp,16
0x0000000080005f9c:  8082              ret             

----------------
IN: 
0x00000000800060e0:  4501              mv              a0,zero
0x00000000800060e2:  e4bff0ef          jal             ra,-438         # 0x80005f2c

----------------
IN: 
0x00000000800060e6:  451d              addi            a0,zero,7
0x00000000800060e8:  4581              mv              a1,zero
0x00000000800060ea:  eb5ff0ef          jal             ra,-332         # 0x80005f9e

----------------
IN: 
0x00000000800060ee:  60e2              ld              ra,24(sp)
0x00000000800060f0:  6442              ld              s0,16(sp)
0x00000000800060f2:  64a2              ld              s1,8(sp)
0x00000000800060f4:  4501              mv              a0,zero
0x00000000800060f6:  6105              addi            sp,sp,32
0x00000000800060f8:  8082              ret             

----------------
IN: 
0x0000000080003042:  60a2              ld              ra,8(sp)
0x0000000080003044:  6402              ld              s0,0(sp)
0x0000000080003046:  0141              addi            sp,sp,16
0x0000000080003048:  8082              ret             

----------------
IN: 
0x000000008000418c:  60a2              ld              ra,8(sp)
0x000000008000418e:  6402              ld              s0,0(sp)
0x0000000080004190:  0141              addi            sp,sp,16
0x0000000080004192:  8082              ret             

----------------
IN: 
0x0000000080000862:  fd49              bnez            a0,-102         # 0x800007fc

----------------
IN: 
0x0000000080000864:  08090263          beqz            s2,132          # 0x800008e8

----------------
IN: 
0x0000000080000868:  06194703          lbu             a4,97(s2)
0x000000008000086c:  06094683          lbu             a3,96(s2)
0x0000000080000870:  06294783          lbu             a5,98(s2)
0x0000000080000874:  06394583          lbu             a1,99(s2)
0x0000000080000878:  0722              slli            a4,a4,8
0x000000008000087a:  06494603          lbu             a2,100(s2)
0x000000008000087e:  8f55              or              a4,a4,a3
0x0000000080000880:  07c2              slli            a5,a5,16
0x0000000080000882:  06594683          lbu             a3,101(s2)
0x0000000080000886:  8fd9              or              a5,a5,a4
0x0000000080000888:  05e2              slli            a1,a1,24
0x000000008000088a:  06694703          lbu             a4,102(s2)
0x000000008000088e:  8ddd              or              a1,a1,a5
0x0000000080000890:  1602              slli            a2,a2,32
0x0000000080000892:  06794783          lbu             a5,103(s2)
0x0000000080000896:  8e4d              or              a2,a2,a1
0x0000000080000898:  16a2              slli            a3,a3,40
0x000000008000089a:  8ed1              or              a3,a3,a2
0x000000008000089c:  1742              slli            a4,a4,48
0x000000008000089e:  8f55              or              a4,a4,a3
0x00000000800008a0:  17e2              slli            a5,a5,56
0x00000000800008a2:  8fd9              or              a5,a5,a4
0x00000000800008a4:  0397c703          lbu             a4,57(a5)
0x00000000800008a8:  0387c683          lbu             a3,56(a5)
0x00000000800008ac:  03a7c503          lbu             a0,58(a5)
0x00000000800008b0:  03b7c583          lbu             a1,59(a5)
0x00000000800008b4:  03c7c603          lbu             a2,60(a5)
0x00000000800008b8:  0722              slli            a4,a4,8
0x00000000800008ba:  8f55              or              a4,a4,a3
0x00000000800008bc:  0542              slli            a0,a0,16
0x00000000800008be:  03d7c683          lbu             a3,61(a5)
0x00000000800008c2:  8d59              or              a0,a0,a4
0x00000000800008c4:  05e2              slli            a1,a1,24
0x00000000800008c6:  03e7c703          lbu             a4,62(a5)
0x00000000800008ca:  8dc9              or              a1,a1,a0
0x00000000800008cc:  1602              slli            a2,a2,32
0x00000000800008ce:  03f7c783          lbu             a5,63(a5)
0x00000000800008d2:  8e4d              or              a2,a2,a1
0x00000000800008d4:  16a2              slli            a3,a3,40
0x00000000800008d6:  8ed1              or              a3,a3,a2
0x00000000800008d8:  1742              slli            a4,a4,48
0x00000000800008da:  8f55              or              a4,a4,a3
0x00000000800008dc:  17e2              slli            a5,a5,56
0x00000000800008de:  8fd9              or              a5,a5,a4
0x00000000800008e0:  c781              beqz            a5,8            # 0x800008e8

----------------
IN: 
0x00000000800008e2:  4505              addi            a0,zero,1
0x00000000800008e4:  9782              jalr            ra,a5,0

----------------
IN: 
0x0000000080002fe0:  1101              addi            sp,sp,-32
0x0000000080002fe2:  e822              sd              s0,16(sp)
0x0000000080002fe4:  e426              sd              s1,8(sp)
0x0000000080002fe6:  e04a              sd              s2,0(sp)
0x0000000080002fe8:  ec06              sd              ra,24(sp)
0x0000000080002fea:  1000              addi            s0,sp,32
0x0000000080002fec:  892a              mv              s2,a0
0x0000000080002fee:  197010ef          jal             ra,6550         # 0x80004984

----------------
IN: 
0x0000000080004984:  1141              addi            sp,sp,-16
0x0000000080004986:  e422              sd              s0,8(sp)
0x0000000080004988:  0800              addi            s0,sp,16
0x000000008000498a:  f1402573          csrrs           a0,mhartid,zero

----------------
IN: 
0x000000008000498e:  6422              ld              s0,8(sp)
0x0000000080004990:  2501              sext.w          a0,a0
0x0000000080004992:  0141              addi            sp,sp,16
0x0000000080004994:  8082              ret             

----------------
IN: 
0x0000000080002ff2:  0005049b          sext.w          s1,a0
0x0000000080002ff6:  00090a63          beqz            s2,20           # 0x8000300a

----------------
IN: 
0x0000000080002ffa:  4621              addi            a2,zero,8
0x0000000080002ffc:  07f00593          addi            a1,zero,127

----------------
IN: 
0x0000000080003000:  0c000537          lui             a0,201326592
0x0000000080003004:  2d4030ef          jal             ra,13012        # 0x800062d8

----------------
IN: 
0x00000000800062d8:  1141              addi            sp,sp,-16
0x00000000800062da:  e422              sd              s0,8(sp)
0x00000000800062dc:  0800              addi            s0,sp,16
0x00000000800062de:  00005797          auipc           a5,20480        # 0x8000b2de
0x00000000800062e2:  dcc7ab23          sw              a2,-554(a5)
0x00000000800062e6:  00005797          auipc           a5,20480        # 0x8000b2e6
0x00000000800062ea:  dcb7a523          sw              a1,-566(a5)
0x00000000800062ee:  00005797          auipc           a5,20480        # 0x8000b2ee
0x00000000800062f2:  daa7bd23          sd              a0,-582(a5)
0x00000000800062f6:  c98d              beqz            a1,50           # 0x80006328

----------------
IN: 
0x00000000800062f8:  4785              addi            a5,zero,1
0x00000000800062fa:  00005617          auipc           a2,20480        # 0x8000b2fa
0x00000000800062fe:  db660613          addi            a2,a2,-586
0x0000000080006302:  4685              addi            a3,zero,1
0x0000000080006304:  00005597          auipc           a1,20480        # 0x8000b304
0x0000000080006308:  da458593          addi            a1,a1,-604
0x000000008000630c:  a011              j               4               # 0x80006310

----------------
IN: 
0x0000000080006310:  0140000f          fence           w,o
0x0000000080006314:  0027971b          slliw           a4,a5,2
0x0000000080006318:  1702              slli            a4,a4,32
0x000000008000631a:  9301              srli            a4,a4,32
0x000000008000631c:  953a              add             a0,a0,a4
0x000000008000631e:  c114              sw              a3,0(a0)
0x0000000080006320:  4218              lw              a4,0(a2)
0x0000000080006322:  2785              addiw           a5,a5,1
0x0000000080006324:  fef775e3          bleu            a5,a4,-22       # 0x8000630e

----------------
IN: 
0x000000008000630e:  6188              ld              a0,0(a1)
0x0000000080006310:  0140000f          fence           w,o
0x0000000080006314:  0027971b          slliw           a4,a5,2
0x0000000080006318:  1702              slli            a4,a4,32
0x000000008000631a:  9301              srli            a4,a4,32
0x000000008000631c:  953a              add             a0,a0,a4
0x000000008000631e:  c114              sw              a3,0(a0)
0x0000000080006320:  4218              lw              a4,0(a2)
0x0000000080006322:  2785              addiw           a5,a5,1
0x0000000080006324:  fef775e3          bleu            a5,a4,-22       # 0x8000630e

----------------
IN: 
0x0000000080006328:  6422              ld              s0,8(sp)
0x000000008000632a:  4501              mv              a0,zero
0x000000008000632c:  0141              addi            sp,sp,16
0x000000008000632e:  8082              ret             

----------------
IN: 
0x0000000080003008:  e901              bnez            a0,16           # 0x80003018

----------------
IN: 
0x000000008000300a:  0014959b          slliw           a1,s1,1
0x000000008000300e:  0015861b          addiw           a2,a1,1
0x0000000080003012:  8526              mv              a0,s1
0x0000000080003014:  1d8030ef          jal             ra,12760        # 0x800061ec

----------------
IN: 
0x00000000800061ec:  1141              addi            sp,sp,-16
0x00000000800061ee:  e422              sd              s0,8(sp)
0x00000000800061f0:  0800              addi            s0,sp,16
0x00000000800061f2:  00005797          auipc           a5,20480        # 0x8000b1f2
0x00000000800061f6:  ebe78793          addi            a5,a5,-322
0x00000000800061fa:  0007a803          lw              a6,0(a5)
0x00000000800061fe:  00005797          auipc           a5,20480        # 0x8000b1fe
0x0000000080006202:  eb678793          addi            a5,a5,-330
0x0000000080006206:  439c              lw              a5,0(a5)
0x0000000080006208:  0cf57663          bleu            a5,a0,204       # 0x800062d4

----------------
IN: 
0x000000008000620c:  0058581b          srliw           a6,a6,5
0x0000000080006210:  2805              addiw           a6,a6,1
0x0000000080006212:  0a05ca63          bltz            a1,180          # 0x800062c6

----------------
IN: 
0x0000000080006216:  0005831b          sext.w          t1,a1
0x000000008000621a:  0073171b          slliw           a4,t1,7
0x000000008000621e:  1702              slli            a4,a4,32
0x0000000080006220:  9301              srli            a4,a4,32
0x0000000080006222:  6789              lui             a5,8192
0x0000000080006224:  973e              add             a4,a4,a5
0x0000000080006226:  4681              mv              a3,zero
0x0000000080006228:  00005517          auipc           a0,20480        # 0x8000b228
0x000000008000622c:  e8050513          addi            a0,a0,-384
0x0000000080006230:  4881              mv              a7,zero
0x0000000080006232:  611c              ld              a5,0(a0)
0x0000000080006234:  0140000f          fence           w,o
0x0000000080006238:  97ba              add             a5,a5,a4
0x000000008000623a:  0117a023          sw              a7,0(a5)
0x000000008000623e:  0685              addi            a3,a3,1
0x0000000080006240:  0711              addi            a4,a4,4
0x0000000080006242:  ff06e8e3          bgtu            a6,a3,-16       # 0x80006232

----------------
IN: 
0x0000000080006232:  611c              ld              a5,0(a0)
0x0000000080006234:  0140000f          fence           w,o
0x0000000080006238:  97ba              add             a5,a5,a4
0x000000008000623a:  0117a023          sw              a7,0(a5)
0x000000008000623e:  0685              addi            a3,a3,1
0x0000000080006240:  0711              addi            a4,a4,4
0x0000000080006242:  ff06e8e3          bgtu            a6,a3,-16       # 0x80006232

----------------
IN: 
0x0000000080006246:  02064a63          bltz            a2,52           # 0x8000627a

----------------
IN: 
0x000000008000624a:  0006089b          sext.w          a7,a2
0x000000008000624e:  0078971b          slliw           a4,a7,7
0x0000000080006252:  1702              slli            a4,a4,32
0x0000000080006254:  9301              srli            a4,a4,32
0x0000000080006256:  6789              lui             a5,8192
0x0000000080006258:  973e              add             a4,a4,a5
0x000000008000625a:  4681              mv              a3,zero
0x000000008000625c:  4301              mv              t1,zero
0x000000008000625e:  611c              ld              a5,0(a0)
0x0000000080006260:  0140000f          fence           w,o
0x0000000080006264:  97ba              add             a5,a5,a4
0x0000000080006266:  0067a023          sw              t1,0(a5)
0x000000008000626a:  0685              addi            a3,a3,1
0x000000008000626c:  0711              addi            a4,a4,4
0x000000008000626e:  ff06e8e3          bgtu            a6,a3,-16       # 0x8000625e

----------------
IN: 
0x000000008000625e:  611c              ld              a5,0(a0)
0x0000000080006260:  0140000f          fence           w,o
0x0000000080006264:  97ba              add             a5,a5,a4
0x0000000080006266:  0067a023          sw              t1,0(a5)
0x000000008000626a:  0685              addi            a3,a3,1
0x000000008000626c:  0711              addi            a4,a4,4
0x000000008000626e:  ff06e8e3          bgtu            a6,a3,-16       # 0x8000625e

----------------
IN: 
0x0000000080006272:  0005831b          sext.w          t1,a1
0x0000000080006276:  0205c563          bltz            a1,42           # 0x800062a0

----------------
IN: 
0x000000008000627a:  00c3131b          slliw           t1,t1,12
0x000000008000627e:  611c              ld              a5,0(a0)
0x0000000080006280:  1302              slli            t1,t1,32
0x0000000080006282:  00200737          lui             a4,2097152
0x0000000080006286:  02035313          srli            t1,t1,32
0x000000008000628a:  933a              add             t1,t1,a4
0x000000008000628c:  933e              add             t1,t1,a5
0x000000008000628e:  0140000f          fence           w,o
0x0000000080006292:  4785              addi            a5,zero,1
0x0000000080006294:  00f32023          sw              a5,0(t1)
0x0000000080006298:  0006089b          sext.w          a7,a2
0x000000008000629c:  02064163          bltz            a2,34           # 0x800062be

----------------
IN: 
0x00000000800062a0:  00c8989b          slliw           a7,a7,12
0x00000000800062a4:  611c              ld              a5,0(a0)
0x00000000800062a6:  1882              slli            a7,a7,32
0x00000000800062a8:  00200737          lui             a4,2097152
0x00000000800062ac:  0208d893          srli            a7,a7,32
0x00000000800062b0:  98ba              add             a7,a7,a4
0x00000000800062b2:  98be              add             a7,a7,a5
0x00000000800062b4:  0140000f          fence           w,o
0x00000000800062b8:  4781              mv              a5,zero
0x00000000800062ba:  00f8a023          sw              a5,0(a7)
0x00000000800062be:  4501              mv              a0,zero
0x00000000800062c0:  6422              ld              s0,8(sp)
0x00000000800062c2:  0141              addi            sp,sp,16
0x00000000800062c4:  8082              ret             

----------------
IN: 
0x0000000080003018:  60e2              ld              ra,24(sp)
0x000000008000301a:  6442              ld              s0,16(sp)
0x000000008000301c:  64a2              ld              s1,8(sp)
0x000000008000301e:  6902              ld              s2,0(sp)
0x0000000080003020:  6105              addi            sp,sp,32
0x0000000080003022:  8082              ret             

----------------
IN: 
0x00000000800008e6:  f919              bnez            a0,-234         # 0x800007fc

----------------
IN: 
0x00000000800008e8:  4585              addi            a1,zero,1
0x00000000800008ea:  8526              mv              a0,s1
0x00000000800008ec:  75c000ef          jal             ra,1884         # 0x80001048

----------------
IN: 
0x0000000080001048:  1101              addi            sp,sp,-32
0x000000008000104a:  e822              sd              s0,16(sp)
0x000000008000104c:  e426              sd              s1,8(sp)
0x000000008000104e:  e04a              sd              s2,0(sp)
0x0000000080001050:  ec06              sd              ra,24(sp)
0x0000000080001052:  1000              addi            s0,sp,32
0x0000000080001054:  892e              mv              s2,a1
0x0000000080001056:  84aa              mv              s1,a0
0x0000000080001058:  e9f5              bnez            a1,244          # 0x8000114c

----------------
IN: 
0x000000008000114c:  00008597          auipc           a1,32768        # 0x8000914c
0x0000000080001150:  14c58593          addi            a1,a1,332
0x0000000080001154:  4521              addi            a0,zero,8
0x0000000080001156:  014000ef          jal             ra,20           # 0x8000116a

----------------
IN: 
0x000000008000116a:  1101              addi            sp,sp,-32
0x000000008000116c:  e822              sd              s0,16(sp)
0x000000008000116e:  e04a              sd              s2,0(sp)
0x0000000080001170:  ec06              sd              ra,24(sp)
0x0000000080001172:  e426              sd              s1,8(sp)
0x0000000080001174:  1000              addi            s0,sp,32
0x0000000080001176:  4901              mv              s2,zero
0x0000000080001178:  c521              beqz            a0,72           # 0x800011c0

----------------
IN: 
0x000000008000117a:  00757793          andi            a5,a0,7
0x000000008000117e:  84aa              mv              s1,a0
0x0000000080001180:  c789              beqz            a5,10           # 0x8000118a

----------------
IN: 
0x000000008000118a:  0000a517          auipc           a0,40960        # 0x8000b18a
0x000000008000118e:  e8650513          addi            a0,a0,-378
0x0000000080001192:  0b2020ef          jal             ra,8370         # 0x80003244

----------------
IN: 
0x0000000080003244:  1141              addi            sp,sp,-16
0x0000000080003246:  e422              sd              s0,8(sp)
0x0000000080003248:  0800              addi            s0,sp,16
0x000000008000324a:  4705              addi            a4,zero,1
0x000000008000324c:  611c              ld              a5,0(a0)
0x000000008000324e:  fffd              bnez            a5,-2           # 0x8000324c

----------------
IN: 
0x0000000080003250:  08e527af          amoswap.w       a5,a4,(a0)
0x0000000080003254:  0230000f          fence           r,rw
0x0000000080003258:  2781              sext.w          a5,a5
0x000000008000325a:  fbed              bnez            a5,-14          # 0x8000324c

----------------
IN: 
0x000000008000325c:  6422              ld              s0,8(sp)
0x000000008000325e:  0141              addi            sp,sp,16
0x0000000080003260:  8082              ret             

----------------
IN: 
0x0000000080001196:  00009797          auipc           a5,36864        # 0x8000a196
0x000000008000119a:  e6a78793          addi            a5,a5,-406
0x000000008000119e:  0007b903          ld              s2,0(a5)
0x00000000800011a2:  20000793          addi            a5,zero,512
0x00000000800011a6:  94ca              add             s1,s1,s2
0x00000000800011a8:  0297e363          bgtu            s1,a5,38        # 0x800011ce

----------------
IN: 
0x00000000800011ac:  00009797          auipc           a5,36864        # 0x8000a1ac
0x00000000800011b0:  e497ba23          sd              s1,-428(a5)
0x00000000800011b4:  0000a517          auipc           a0,40960        # 0x8000b1b4
0x00000000800011b8:  e5c50513          addi            a0,a0,-420
0x00000000800011bc:  0a6020ef          jal             ra,8358         # 0x80003262

----------------
IN: 
0x0000000080003262:  1141              addi            sp,sp,-16
0x0000000080003264:  e422              sd              s0,8(sp)
0x0000000080003266:  0800              addi            s0,sp,16
0x0000000080003268:  0310000f          fence           rw,w
0x000000008000326c:  6422              ld              s0,8(sp)
0x000000008000326e:  00053023          sd              zero,0(a0)
0x0000000080003272:  0141              addi            sp,sp,16
0x0000000080003274:  8082              ret             

----------------
IN: 
0x00000000800011c0:  60e2              ld              ra,24(sp)
0x00000000800011c2:  6442              ld              s0,16(sp)
0x00000000800011c4:  854a              mv              a0,s2
0x00000000800011c6:  64a2              ld              s1,8(sp)
0x00000000800011c8:  6902              ld              s2,0(sp)
0x00000000800011ca:  6105              addi            sp,sp,32
0x00000000800011cc:  8082              ret             

----------------
IN: 
0x000000008000115a:  0000a797          auipc           a5,40960        # 0x8000b15a
0x000000008000115e:  eaa7b723          sd              a0,-338(a5)
0x0000000080001162:  f00513e3          bnez            a0,-250         # 0x80001068

----------------
IN: 
0x0000000080001068:  9526              add             a0,a0,s1
0x000000008000106a:  00053023          sd              zero,0(a0)
0x000000008000106e:  85ca              mv              a1,s2
0x0000000080001070:  8526              mv              a0,s1
0x0000000080001072:  2a1000ef          jal             ra,2720         # 0x80001b12

----------------
IN: 
0x0000000080001b12:  1101              addi            sp,sp,-32
0x0000000080001b14:  e822              sd              s0,16(sp)
0x0000000080001b16:  e426              sd              s1,8(sp)
0x0000000080001b18:  ec06              sd              ra,24(sp)
0x0000000080001b1a:  e04a              sd              s2,0(sp)
0x0000000080001b1c:  1000              addi            s0,sp,32
0x0000000080001b1e:  84aa              mv              s1,a0
0x0000000080001b20:  ed8d              bnez            a1,58           # 0x80001b5a

----------------
IN: 
0x0000000080001b5a:  00007597          auipc           a1,28672        # 0x80008b5a
0x0000000080001b5e:  74e58593          addi            a1,a1,1870
0x0000000080001b62:  4561              addi            a0,zero,24
0x0000000080001b64:  e06ff0ef          jal             ra,-2554        # 0x8000116a

----------------
IN: 
0x0000000080001b68:  00009797          auipc           a5,36864        # 0x8000ab68
0x0000000080001b6c:  4aa7bc23          sd              a0,1208(a5)
0x0000000080001b70:  00009917          auipc           s2,36864        # 0x8000ab70
0x0000000080001b74:  4b090913          addi            s2,s2,1200
0x0000000080001b78:  c50d              beqz            a0,42           # 0x80001ba2

----------------
IN: 
0x0000000080001b7a:  00007597          auipc           a1,28672        # 0x80008b7a
0x0000000080001b7e:  73e58593          addi            a1,a1,1854
0x0000000080001b82:  08000513          addi            a0,zero,128
0x0000000080001b86:  de4ff0ef          jal             ra,-2588        # 0x8000116a

----------------
IN: 
0x0000000080001b8a:  00009797          auipc           a5,36864        # 0x8000ab8a
0x0000000080001b8e:  48a7b723          sd              a0,1166(a5)
0x0000000080001b92:  c501              beqz            a0,8            # 0x80001b9a

----------------
IN: 
0x0000000080001b94:  00093783          ld              a5,0(s2)
0x0000000080001b98:  b74d              j               -94             # 0x80001b3a

----------------
IN: 
0x0000000080001b3a:  00a485b3          add             a1,s1,a0
0x0000000080001b3e:  02000693          addi            a3,zero,32
0x0000000080001b42:  00f48533          add             a0,s1,a5
0x0000000080001b46:  4611              addi            a2,zero,4
0x0000000080001b48:  351020ef          jal             ra,11088        # 0x80004698

----------------
IN: 
0x0000000080004698:  8732              mv              a4,a2
0x000000008000469a:  02d6063b          mulw            a2,a2,a3
0x000000008000469e:  1141              addi            sp,sp,-16
0x00000000800046a0:  e022              sd              s0,0(sp)
0x00000000800046a2:  e406              sd              ra,8(sp)
0x00000000800046a4:  0800              addi            s0,sp,16
0x00000000800046a6:  87aa              mv              a5,a0
0x00000000800046a8:  e38c              sd              a1,0(a5)
0x00000000800046aa:  852e              mv              a0,a1
0x00000000800046ac:  00e79923          sh              a4,18(a5)
0x00000000800046b0:  00d79823          sh              a3,16(a5)
0x00000000800046b4:  0007b423          sd              zero,8(a5)
0x00000000800046b8:  0007aa23          sw              zero,20(a5)
0x00000000800046bc:  4581              mv              a1,zero
0x00000000800046be:  f80fe0ef          jal             ra,-6272        # 0x80002e3e

----------------
IN: 
0x0000000080002e3e:  1141              addi            sp,sp,-16
0x0000000080002e40:  e422              sd              s0,8(sp)
0x0000000080002e42:  0800              addi            s0,sp,16
0x0000000080002e44:  00c50733          add             a4,a0,a2
0x0000000080002e48:  ca09              beqz            a2,18           # 0x80002e5a

----------------
IN: 
0x0000000080002e4a:  0ff5f593          andi            a1,a1,255
0x0000000080002e4e:  87aa              mv              a5,a0
0x0000000080002e50:  0785              addi            a5,a5,1
0x0000000080002e52:  feb78fa3          sb              a1,-1(a5)
0x0000000080002e56:  fee79de3          bne             a5,a4,-6        # 0x80002e50

----------------
IN: 
0x0000000080002e50:  0785              addi            a5,a5,1
0x0000000080002e52:  feb78fa3          sb              a1,-1(a5)
0x0000000080002e56:  fee79de3          bne             a5,a4,-6        # 0x80002e50

----------------
IN: 
0x0000000080002e5a:  6422              ld              s0,8(sp)
0x0000000080002e5c:  0141              addi            sp,sp,16
0x0000000080002e5e:  8082              ret             

----------------
IN: 
0x00000000800046c2:  60a2              ld              ra,8(sp)
0x00000000800046c4:  6402              ld              s0,0(sp)
0x00000000800046c6:  0141              addi            sp,sp,16
0x00000000800046c8:  8082              ret             

----------------
IN: 
0x0000000080001b4c:  4501              mv              a0,zero
0x0000000080001b4e:  60e2              ld              ra,24(sp)
0x0000000080001b50:  6442              ld              s0,16(sp)
0x0000000080001b52:  64a2              ld              s1,8(sp)
0x0000000080001b54:  6902              ld              s2,0(sp)
0x0000000080001b56:  6105              addi            sp,sp,32
0x0000000080001b58:  8082              ret             

----------------
IN: 
0x0000000080001076:  e569              bnez            a0,202          # 0x80001140

----------------
IN: 
0x0000000080001078:  30446073          csrrsi          zero,mie,8

----------------
IN: 
0x000000008000107c:  0314c703          lbu             a4,49(s1)
0x0000000080001080:  0304c683          lbu             a3,48(s1)
0x0000000080001084:  0324c783          lbu             a5,50(s1)
0x0000000080001088:  0334c583          lbu             a1,51(s1)
0x000000008000108c:  0722              slli            a4,a4,8
0x000000008000108e:  0344c603          lbu             a2,52(s1)
0x0000000080001092:  8f55              or              a4,a4,a3
0x0000000080001094:  07c2              slli            a5,a5,16
0x0000000080001096:  0354c683          lbu             a3,53(s1)
0x000000008000109a:  8fd9              or              a5,a5,a4
0x000000008000109c:  05e2              slli            a1,a1,24
0x000000008000109e:  0364c703          lbu             a4,54(s1)
0x00000000800010a2:  8ddd              or              a1,a1,a5
0x00000000800010a4:  1602              slli            a2,a2,32
0x00000000800010a6:  0374c783          lbu             a5,55(s1)
0x00000000800010aa:  8e4d              or              a2,a2,a1
0x00000000800010ac:  16a2              slli            a3,a3,40
0x00000000800010ae:  8ed1              or              a3,a3,a2
0x00000000800010b0:  1742              slli            a4,a4,48
0x00000000800010b2:  8f55              or              a4,a4,a3
0x00000000800010b4:  17e2              slli            a5,a5,56
0x00000000800010b6:  8fd9              or              a5,a5,a4
0x00000000800010b8:  c7c1              beqz            a5,136          # 0x80001140

----------------
IN: 
0x00000000800010ba:  0617c703          lbu             a4,97(a5)
0x00000000800010be:  0607c683          lbu             a3,96(a5)
0x00000000800010c2:  0627c803          lbu             a6,98(a5)
0x00000000800010c6:  0637c583          lbu             a1,99(a5)
0x00000000800010ca:  0647c603          lbu             a2,100(a5)
0x00000000800010ce:  0722              slli            a4,a4,8
0x00000000800010d0:  8f55              or              a4,a4,a3
0x00000000800010d2:  0842              slli            a6,a6,16
0x00000000800010d4:  0657c683          lbu             a3,101(a5)
0x00000000800010d8:  00e86833          or              a6,a6,a4
0x00000000800010dc:  05e2              slli            a1,a1,24
0x00000000800010de:  0667c703          lbu             a4,102(a5)
0x00000000800010e2:  0105e5b3          or              a1,a1,a6
0x00000000800010e6:  1602              slli            a2,a2,32
0x00000000800010e8:  0677c783          lbu             a5,103(a5)
0x00000000800010ec:  8e4d              or              a2,a2,a1
0x00000000800010ee:  16a2              slli            a3,a3,40
0x00000000800010f0:  8ed1              or              a3,a3,a2
0x00000000800010f2:  1742              slli            a4,a4,48
0x00000000800010f4:  8f55              or              a4,a4,a3
0x00000000800010f6:  17e2              slli            a5,a5,56
0x00000000800010f8:  8fd9              or              a5,a5,a4
0x00000000800010fa:  0597c703          lbu             a4,89(a5)
0x00000000800010fe:  0587c683          lbu             a3,88(a5)
0x0000000080001102:  05a7c803          lbu             a6,90(a5)
0x0000000080001106:  05b7c583          lbu             a1,91(a5)
0x000000008000110a:  05c7c603          lbu             a2,92(a5)
0x000000008000110e:  0722              slli            a4,a4,8
0x0000000080001110:  8f55              or              a4,a4,a3
0x0000000080001112:  0842              slli            a6,a6,16
0x0000000080001114:  05d7c683          lbu             a3,93(a5)
0x0000000080001118:  00e86833          or              a6,a6,a4
0x000000008000111c:  05e2              slli            a1,a1,24
0x000000008000111e:  05e7c703          lbu             a4,94(a5)
0x0000000080001122:  0105e5b3          or              a1,a1,a6
0x0000000080001126:  1602              slli            a2,a2,32
0x0000000080001128:  05f7c783          lbu             a5,95(a5)
0x000000008000112c:  8e4d              or              a2,a2,a1
0x000000008000112e:  16a2              slli            a3,a3,40
0x0000000080001130:  8ed1              or              a3,a3,a2
0x0000000080001132:  1742              slli            a4,a4,48
0x0000000080001134:  8f55              or              a4,a4,a3
0x0000000080001136:  17e2              slli            a5,a5,56
0x0000000080001138:  8fd9              or              a5,a5,a4
0x000000008000113a:  c399              beqz            a5,6            # 0x80001140

----------------
IN: 
0x000000008000113c:  854a              mv              a0,s2
0x000000008000113e:  9782              jalr            ra,a5,0

----------------
IN: 
0x0000000080002fbe:  1141              addi            sp,sp,-16
0x0000000080002fc0:  e022              sd              s0,0(sp)
0x0000000080002fc2:  e406              sd              ra,8(sp)
0x0000000080002fc4:  0800              addi            s0,sp,16
0x0000000080002fc6:  c519              beqz            a0,14           # 0x80002fd4

----------------
IN: 
0x0000000080002fc8:  45a1              addi            a1,zero,8
0x0000000080002fca:  02000537          lui             a0,33554432
0x0000000080002fce:  62b020ef          jal             ra,11818        # 0x80005df8

----------------
IN: 
0x0000000080005df8:  1141              addi            sp,sp,-16
0x0000000080005dfa:  e422              sd              s0,8(sp)
0x0000000080005dfc:  0800              addi            s0,sp,16
0x0000000080005dfe:  6422              ld              s0,8(sp)
0x0000000080005e00:  00005797          auipc           a5,20480        # 0x8000ae00
0x0000000080005e04:  28a7b423          sd              a0,648(a5)
0x0000000080005e08:  00005797          auipc           a5,20480        # 0x8000ae08
0x0000000080005e0c:  26a7bc23          sd              a0,632(a5)
0x0000000080005e10:  00005797          auipc           a5,20480        # 0x8000ae10
0x0000000080005e14:  28b7a023          sw              a1,640(a5)
0x0000000080005e18:  4501              mv              a0,zero
0x0000000080005e1a:  0141              addi            sp,sp,16
0x0000000080005e1c:  8082              ret             

----------------
IN: 
0x0000000080002fd2:  e119              bnez            a0,6            # 0x80002fd8

----------------
IN: 
0x0000000080002fd4:  5d5020ef          jal             ra,11732        # 0x80005da8

----------------
IN: 
0x0000000080005da8:  1141              addi            sp,sp,-16
0x0000000080005daa:  e022              sd              s0,0(sp)
0x0000000080005dac:  e406              sd              ra,8(sp)
0x0000000080005dae:  0800              addi            s0,sp,16
0x0000000080005db0:  bd5fe0ef          jal             ra,-5164        # 0x80004984

----------------
IN: 
0x0000000080005db4:  00005797          auipc           a5,20480        # 0x8000adb4
0x0000000080005db8:  2d478793          addi            a5,a5,724
0x0000000080005dbc:  6398              ld              a4,0(a5)
0x0000000080005dbe:  cb1d              beqz            a4,54           # 0x80005df4

----------------
IN: 
0x0000000080005dc0:  00005717          auipc           a4,20480        # 0x8000adc0
0x0000000080005dc4:  2d070713          addi            a4,a4,720
0x0000000080005dc8:  4318              lw              a4,0(a4)
0x0000000080005dca:  0005079b          sext.w          a5,a0
0x0000000080005dce:  4501              mv              a0,zero
0x0000000080005dd0:  00e7fe63          bleu            a4,a5,28        # 0x80005dec

----------------
IN: 
0x0000000080005dd4:  0140000f          fence           w,o
0x0000000080005dd8:  00005717          auipc           a4,20480        # 0x8000add8
0x0000000080005ddc:  2a870713          addi            a4,a4,680
0x0000000080005de0:  6318              ld              a4,0(a4)
0x0000000080005de2:  1782              slli            a5,a5,32
0x0000000080005de4:  83f9              srli            a5,a5,30
0x0000000080005de6:  97ba              add             a5,a5,a4
0x0000000080005de8:  4701              mv              a4,zero
0x0000000080005dea:  c398              sw              a4,0(a5)
0x0000000080005dec:  60a2              ld              ra,8(sp)
0x0000000080005dee:  6402              ld              s0,0(sp)
0x0000000080005df0:  0141              addi            sp,sp,16
0x0000000080005df2:  8082              ret             

----------------
IN: 
0x0000000080002fd8:  60a2              ld              ra,8(sp)
0x0000000080002fda:  6402              ld              s0,0(sp)
0x0000000080002fdc:  0141              addi            sp,sp,16
0x0000000080002fde:  8082              ret             

----------------
IN: 
0x0000000080001140:  60e2              ld              ra,24(sp)
0x0000000080001142:  6442              ld              s0,16(sp)
0x0000000080001144:  64a2              ld              s1,8(sp)
0x0000000080001146:  6902              ld              s2,0(sp)
0x0000000080001148:  6105              addi            sp,sp,32
0x000000008000114a:  8082              ret             

----------------
IN: 
0x00000000800008f0:  f00516e3          bnez            a0,-244         # 0x800007fc

----------------
IN: 
0x00000000800008f4:  4585              addi            a1,zero,1
0x00000000800008f6:  8526              mv              a0,s1
0x00000000800008f8:  73d000ef          jal             ra,3900         # 0x80001834

----------------
IN: 
0x0000000080001834:  03154703          lbu             a4,49(a0)
0x0000000080001838:  03054683          lbu             a3,48(a0)
0x000000008000183c:  03254783          lbu             a5,50(a0)
0x0000000080001840:  03354803          lbu             a6,51(a0)
0x0000000080001844:  0722              slli            a4,a4,8
0x0000000080001846:  03454603          lbu             a2,52(a0)
0x000000008000184a:  8f55              or              a4,a4,a3
0x000000008000184c:  07c2              slli            a5,a5,16
0x000000008000184e:  03554683          lbu             a3,53(a0)
0x0000000080001852:  8fd9              or              a5,a5,a4
0x0000000080001854:  0862              slli            a6,a6,24
0x0000000080001856:  03654703          lbu             a4,54(a0)
0x000000008000185a:  00f86833          or              a6,a6,a5
0x000000008000185e:  1602              slli            a2,a2,32
0x0000000080001860:  03754783          lbu             a5,55(a0)
0x0000000080001864:  01066633          or              a2,a2,a6
0x0000000080001868:  16a2              slli            a3,a3,40
0x000000008000186a:  8ed1              or              a3,a3,a2
0x000000008000186c:  1742              slli            a4,a4,48
0x000000008000186e:  8f55              or              a4,a4,a3
0x0000000080001870:  17e2              slli            a5,a5,56
0x0000000080001872:  8fd9              or              a5,a5,a4
0x0000000080001874:  cfd9              beqz            a5,158          # 0x80001912

----------------
IN: 
0x0000000080001876:  0617c703          lbu             a4,97(a5)
0x000000008000187a:  0607c683          lbu             a3,96(a5)
0x000000008000187e:  0627c803          lbu             a6,98(a5)
0x0000000080001882:  0637c503          lbu             a0,99(a5)
0x0000000080001886:  0647c603          lbu             a2,100(a5)
0x000000008000188a:  0722              slli            a4,a4,8
0x000000008000188c:  8f55              or              a4,a4,a3
0x000000008000188e:  0842              slli            a6,a6,16
0x0000000080001890:  0657c683          lbu             a3,101(a5)
0x0000000080001894:  00e86833          or              a6,a6,a4
0x0000000080001898:  0562              slli            a0,a0,24
0x000000008000189a:  0667c703          lbu             a4,102(a5)
0x000000008000189e:  01056533          or              a0,a0,a6
0x00000000800018a2:  1602              slli            a2,a2,32
0x00000000800018a4:  0677c783          lbu             a5,103(a5)
0x00000000800018a8:  8e49              or              a2,a2,a0
0x00000000800018aa:  16a2              slli            a3,a3,40
0x00000000800018ac:  8ed1              or              a3,a3,a2
0x00000000800018ae:  1742              slli            a4,a4,48
0x00000000800018b0:  8f55              or              a4,a4,a3
0x00000000800018b2:  17e2              slli            a5,a5,56
0x00000000800018b4:  8fd9              or              a5,a5,a4
0x00000000800018b6:  0797c703          lbu             a4,121(a5)
0x00000000800018ba:  0787c683          lbu             a3,120(a5)
0x00000000800018be:  07a7c883          lbu             a7,122(a5)
0x00000000800018c2:  07b7c803          lbu             a6,123(a5)
0x00000000800018c6:  07c7c603          lbu             a2,124(a5)
0x00000000800018ca:  0722              slli            a4,a4,8
0x00000000800018cc:  8f55              or              a4,a4,a3
0x00000000800018ce:  08c2              slli            a7,a7,16
0x00000000800018d0:  07d7c683          lbu             a3,125(a5)
0x00000000800018d4:  00e8e8b3          or              a7,a7,a4
0x00000000800018d8:  0862              slli            a6,a6,24
0x00000000800018da:  07e7c703          lbu             a4,126(a5)
0x00000000800018de:  01186833          or              a6,a6,a7
0x00000000800018e2:  1602              slli            a2,a2,32
0x00000000800018e4:  07f7c783          lbu             a5,127(a5)
0x00000000800018e8:  01066633          or              a2,a2,a6
0x00000000800018ec:  16a2              slli            a3,a3,40
0x00000000800018ee:  8ed1              or              a3,a3,a2
0x00000000800018f0:  1742              slli            a4,a4,48
0x00000000800018f2:  8f55              or              a4,a4,a3
0x00000000800018f4:  17e2              slli            a5,a5,56
0x00000000800018f6:  8fd9              or              a5,a5,a4
0x00000000800018f8:  4501              mv              a0,zero
0x00000000800018fa:  cb99              beqz            a5,22           # 0x80001910

----------------
IN: 
0x00000000800018fc:  1141              addi            sp,sp,-16
0x00000000800018fe:  e022              sd              s0,0(sp)
0x0000000080001900:  e406              sd              ra,8(sp)
0x0000000080001902:  0800              addi            s0,sp,16
0x0000000080001904:  852e              mv              a0,a1
0x0000000080001906:  9782              jalr            ra,a5,0

----------------
IN: 
0x0000000080002f9c:  1141              addi            sp,sp,-16
0x0000000080002f9e:  e022              sd              s0,0(sp)
0x0000000080002fa0:  e406              sd              ra,8(sp)
0x0000000080002fa2:  0800              addi            s0,sp,16
0x0000000080002fa4:  c519              beqz            a0,14           # 0x80002fb2

----------------
IN: 
0x0000000080002fa6:  45a1              addi            a1,zero,8
0x0000000080002fa8:  02000537          lui             a0,33554432
0x0000000080002fac:  749020ef          jal             ra,12104        # 0x80005ef4

----------------
IN: 
0x0000000080005ef4:  1141              addi            sp,sp,-16
0x0000000080005ef6:  e422              sd              s0,8(sp)
0x0000000080005ef8:  0800              addi            s0,sp,16
0x0000000080005efa:  67b1              lui             a5,49152
0x0000000080005efc:  6422              ld              s0,8(sp)
0x0000000080005efe:  17e1              addi            a5,a5,-8
0x0000000080005f00:  6711              lui             a4,16384
0x0000000080005f02:  97aa              add             a5,a5,a0
0x0000000080005f04:  972a              add             a4,a4,a0
0x0000000080005f06:  00005697          auipc           a3,20480        # 0x8000af06
0x0000000080005f0a:  16a6b523          sd              a0,362(a3)
0x0000000080005f0e:  00005697          auipc           a3,20480        # 0x8000af0e
0x0000000080005f12:  14f6bd23          sd              a5,346(a3)
0x0000000080005f16:  00005697          auipc           a3,20480        # 0x8000af16
0x0000000080005f1a:  16b6a123          sw              a1,354(a3)
0x0000000080005f1e:  00005797          auipc           a5,20480        # 0x8000af1e
0x0000000080005f22:  14e7b123          sd              a4,322(a5)
0x0000000080005f26:  4501              mv              a0,zero
0x0000000080005f28:  0141              addi            sp,sp,16
0x0000000080005f2a:  8082              ret             

----------------
IN: 
0x0000000080002fb0:  e119              bnez            a0,6            # 0x80002fb6

----------------
IN: 
0x0000000080002fb2:  6f9020ef          jal             ra,12024        # 0x80005eaa

----------------
IN: 
0x0000000080005eaa:  1141              addi            sp,sp,-16
0x0000000080005eac:  e022              sd              s0,0(sp)
0x0000000080005eae:  e406              sd              ra,8(sp)
0x0000000080005eb0:  0800              addi            s0,sp,16
0x0000000080005eb2:  ad3fe0ef          jal             ra,-5422        # 0x80004984

----------------
IN: 
0x0000000080005eb6:  00005797          auipc           a5,20480        # 0x8000aeb6
0x0000000080005eba:  1c278793          addi            a5,a5,450
0x0000000080005ebe:  439c              lw              a5,0(a5)
0x0000000080005ec0:  2501              sext.w          a0,a0
0x0000000080005ec2:  02f57763          bleu            a5,a0,46        # 0x80005ef0

----------------
IN: 
0x0000000080005ec6:  00005797          auipc           a5,20480        # 0x8000aec6
0x0000000080005eca:  1aa78793          addi            a5,a5,426
0x0000000080005ece:  639c              ld              a5,0(a5)
0x0000000080005ed0:  c385              beqz            a5,32           # 0x80005ef0

----------------
IN: 
0x0000000080005ed2:  00005797          auipc           a5,20480        # 0x8000aed2
0x0000000080005ed6:  18e78793          addi            a5,a5,398
0x0000000080005eda:  639c              ld              a5,0(a5)
0x0000000080005edc:  1502              slli            a0,a0,32
0x0000000080005ede:  8175              srli            a0,a0,29
0x0000000080005ee0:  953e              add             a0,a0,a5
0x0000000080005ee2:  57fd              addi            a5,zero,-1
0x0000000080005ee4:  e11c              sd              a5,0(a0)
0x0000000080005ee6:  4501              mv              a0,zero
0x0000000080005ee8:  60a2              ld              ra,8(sp)
0x0000000080005eea:  6402              ld              s0,0(sp)
0x0000000080005eec:  0141              addi            sp,sp,16
0x0000000080005eee:  8082              ret             

----------------
IN: 
0x0000000080002fb6:  60a2              ld              ra,8(sp)
0x0000000080002fb8:  6402              ld              s0,0(sp)
0x0000000080002fba:  0141              addi            sp,sp,16
0x0000000080002fbc:  8082              ret             

----------------
IN: 
0x0000000080001908:  60a2              ld              ra,8(sp)
0x000000008000190a:  6402              ld              s0,0(sp)
0x000000008000190c:  0141              addi            sp,sp,16
0x000000008000190e:  8082              ret             

----------------
IN: 
0x00000000800008fc:  f00510e3          bnez            a0,-256         # 0x800007fc

----------------
IN: 
0x0000000080000900:  4585              addi            a1,zero,1
0x0000000080000902:  8526              mv              a0,s1
0x0000000080000904:  1bd000ef          jal             ra,2492         # 0x800012c0

----------------
IN: 
0x00000000800012c0:  03154703          lbu             a4,49(a0)
0x00000000800012c4:  03054683          lbu             a3,48(a0)
0x00000000800012c8:  03254783          lbu             a5,50(a0)
0x00000000800012cc:  03354803          lbu             a6,51(a0)
0x00000000800012d0:  0722              slli            a4,a4,8
0x00000000800012d2:  03454603          lbu             a2,52(a0)
0x00000000800012d6:  8f55              or              a4,a4,a3
0x00000000800012d8:  07c2              slli            a5,a5,16
0x00000000800012da:  03554683          lbu             a3,53(a0)
0x00000000800012de:  8fd9              or              a5,a5,a4
0x00000000800012e0:  0862              slli            a6,a6,24
0x00000000800012e2:  03654703          lbu             a4,54(a0)
0x00000000800012e6:  00f86833          or              a6,a6,a5
0x00000000800012ea:  1602              slli            a2,a2,32
0x00000000800012ec:  03754783          lbu             a5,55(a0)
0x00000000800012f0:  01066633          or              a2,a2,a6
0x00000000800012f4:  16a2              slli            a3,a3,40
0x00000000800012f6:  8ed1              or              a3,a3,a2
0x00000000800012f8:  1742              slli            a4,a4,48
0x00000000800012fa:  8f55              or              a4,a4,a3
0x00000000800012fc:  17e2              slli            a5,a5,56
0x00000000800012fe:  8fd9              or              a5,a5,a4
0x0000000080001300:  cfd9              beqz            a5,158          # 0x8000139e

----------------
IN: 
0x0000000080001302:  0617c703          lbu             a4,97(a5)
0x0000000080001306:  0607c683          lbu             a3,96(a5)
0x000000008000130a:  0627c803          lbu             a6,98(a5)
0x000000008000130e:  0637c503          lbu             a0,99(a5)
0x0000000080001312:  0647c603          lbu             a2,100(a5)
0x0000000080001316:  0722              slli            a4,a4,8
0x0000000080001318:  8f55              or              a4,a4,a3
0x000000008000131a:  0842              slli            a6,a6,16
0x000000008000131c:  0657c683          lbu             a3,101(a5)
0x0000000080001320:  00e86833          or              a6,a6,a4
0x0000000080001324:  0562              slli            a0,a0,24
0x0000000080001326:  0667c703          lbu             a4,102(a5)
0x000000008000132a:  01056533          or              a0,a0,a6
0x000000008000132e:  1602              slli            a2,a2,32
0x0000000080001330:  0677c783          lbu             a5,103(a5)
0x0000000080001334:  8e49              or              a2,a2,a0
0x0000000080001336:  16a2              slli            a3,a3,40
0x0000000080001338:  8ed1              or              a3,a3,a2
0x000000008000133a:  1742              slli            a4,a4,48
0x000000008000133c:  8f55              or              a4,a4,a3
0x000000008000133e:  17e2              slli            a5,a5,56
0x0000000080001340:  8fd9              or              a5,a5,a4
0x0000000080001342:  0097c703          lbu             a4,9(a5)
0x0000000080001346:  0087c683          lbu             a3,8(a5)
0x000000008000134a:  00a7c883          lbu             a7,10(a5)
0x000000008000134e:  00b7c803          lbu             a6,11(a5)
0x0000000080001352:  00c7c603          lbu             a2,12(a5)
0x0000000080001356:  0722              slli            a4,a4,8
0x0000000080001358:  8f55              or              a4,a4,a3
0x000000008000135a:  08c2              slli            a7,a7,16
0x000000008000135c:  00d7c683          lbu             a3,13(a5)
0x0000000080001360:  00e8e8b3          or              a7,a7,a4
0x0000000080001364:  0862              slli            a6,a6,24
0x0000000080001366:  00e7c703          lbu             a4,14(a5)
0x000000008000136a:  01186833          or              a6,a6,a7
0x000000008000136e:  1602              slli            a2,a2,32
0x0000000080001370:  00f7c783          lbu             a5,15(a5)
0x0000000080001374:  01066633          or              a2,a2,a6
0x0000000080001378:  16a2              slli            a3,a3,40
0x000000008000137a:  8ed1              or              a3,a3,a2
0x000000008000137c:  1742              slli            a4,a4,48
0x000000008000137e:  8f55              or              a4,a4,a3
0x0000000080001380:  17e2              slli            a5,a5,56
0x0000000080001382:  8fd9              or              a5,a5,a4
0x0000000080001384:  4501              mv              a0,zero
0x0000000080001386:  cb99              beqz            a5,22           # 0x8000139c

----------------
IN: 
0x0000000080001388:  1141              addi            sp,sp,-16
0x000000008000138a:  e022              sd              s0,0(sp)
0x000000008000138c:  e406              sd              ra,8(sp)
0x000000008000138e:  0800              addi            s0,sp,16
0x0000000080001390:  852e              mv              a0,a1
0x0000000080001392:  9782              jalr            ra,a5,0

----------------
IN: 
0x000000008000304a:  e119              bnez            a0,6            # 0x80003050

----------------
IN: 
0x0000000080003050:  1141              addi            sp,sp,-16
0x0000000080003052:  e022              sd              s0,0(sp)
0x0000000080003054:  e406              sd              ra,8(sp)
0x0000000080003056:  0800              addi            s0,sp,16
0x0000000080003058:  340027f3          csrrs           a5,mscratch,zero

----------------
IN: 
0x000000008000305c:  0117c503          lbu             a0,17(a5)
0x0000000080003060:  0107c703          lbu             a4,16(a5)
0x0000000080003064:  0127c583          lbu             a1,18(a5)
0x0000000080003068:  0137c603          lbu             a2,19(a5)
0x000000008000306c:  0147c683          lbu             a3,20(a5)
0x0000000080003070:  0522              slli            a0,a0,8
0x0000000080003072:  8d59              or              a0,a0,a4
0x0000000080003074:  05c2              slli            a1,a1,16
0x0000000080003076:  0157c703          lbu             a4,21(a5)
0x000000008000307a:  8dc9              or              a1,a1,a0
0x000000008000307c:  0662              slli            a2,a2,24
0x000000008000307e:  0167c503          lbu             a0,22(a5)
0x0000000080003082:  8e4d              or              a2,a2,a1
0x0000000080003084:  1682              slli            a3,a3,32
0x0000000080003086:  0177c583          lbu             a1,23(a5)
0x000000008000308a:  8ed1              or              a3,a3,a2
0x000000008000308c:  02871793          slli            a5,a4,40
0x0000000080003090:  00d7e733          or              a4,a5,a3
0x0000000080003094:  03051793          slli            a5,a0,48
0x0000000080003098:  8fd9              or              a5,a5,a4
0x000000008000309a:  03859513          slli            a0,a1,56
0x000000008000309e:  8d5d              or              a0,a0,a5
0x00000000800030a0:  00006597          auipc           a1,24576        # 0x800090a0
0x00000000800030a4:  62058593          addi            a1,a1,1568
0x00000000800030a8:  0b2030ef          jal             ra,12466        # 0x8000615a

----------------
IN: 
0x000000008000615a:  7179              addi            sp,sp,-48
0x000000008000615c:  f022              sd              s0,32(sp)
0x000000008000615e:  ec26              sd              s1,24(sp)
0x0000000080006160:  1800              addi            s0,sp,48
0x0000000080006162:  f406              sd              ra,40(sp)
0x0000000080006164:  862e              mv              a2,a1
0x0000000080006166:  4581              mv              a1,zero
0x0000000080006168:  84aa              mv              s1,a0
0x000000008000616a:  511010ef          jal             ra,7440         # 0x80007e7a

----------------
IN: 
0x0000000080007e7a:  7179              addi            sp,sp,-48
0x0000000080007e7c:  f022              sd              s0,32(sp)
0x0000000080007e7e:  ec26              sd              s1,24(sp)
0x0000000080007e80:  e84a              sd              s2,16(sp)
0x0000000080007e82:  e44e              sd              s3,8(sp)
0x0000000080007e84:  f406              sd              ra,40(sp)
0x0000000080007e86:  e052              sd              s4,0(sp)
0x0000000080007e88:  1800              addi            s0,sp,48
0x0000000080007e8a:  892a              mv              s2,a0
0x0000000080007e8c:  84ae              mv              s1,a1
0x0000000080007e8e:  89b2              mv              s3,a2
0x0000000080007e90:  14e000ef          jal             ra,334          # 0x80007fde

----------------
IN: 
0x0000000080007fde:  1141              addi            sp,sp,-16
0x0000000080007fe0:  e422              sd              s0,8(sp)
0x0000000080007fe2:  0800              addi            s0,sp,16
0x0000000080007fe4:  00054783          lbu             a5,0(a0)
0x0000000080007fe8:  00154683          lbu             a3,1(a0)
0x0000000080007fec:  00354603          lbu             a2,3(a0)
0x0000000080007ff0:  00254703          lbu             a4,2(a0)
0x0000000080007ff4:  0187979b          slliw           a5,a5,24
0x0000000080007ff8:  0106969b          slliw           a3,a3,16
0x0000000080007ffc:  8fd5              or              a5,a5,a3
0x0000000080007ffe:  0087171b          slliw           a4,a4,8

----------------
IN: 
0x0000000080008002:  8fd1              or              a5,a5,a2
0x0000000080008004:  8fd9              or              a5,a5,a4
0x0000000080008006:  d00e0737          lui             a4,-804388864
0x000000008000800a:  2781              sext.w          a5,a5
0x000000008000800c:  eed70713          addi            a4,a4,-275
0x0000000080008010:  02e78f63          beq             a5,a4,62        # 0x8000804e

----------------
IN: 
0x000000008000804e:  01454783          lbu             a5,20(a0)
0x0000000080008052:  01554683          lbu             a3,21(a0)
0x0000000080008056:  01754603          lbu             a2,23(a0)
0x000000008000805a:  01654703          lbu             a4,22(a0)
0x000000008000805e:  0187979b          slliw           a5,a5,24
0x0000000080008062:  0106969b          slliw           a3,a3,16
0x0000000080008066:  8fd5              or              a5,a5,a3
0x0000000080008068:  0087171b          slliw           a4,a4,8
0x000000008000806c:  8fd1              or              a5,a5,a2
0x000000008000806e:  8fd9              or              a5,a5,a4
0x0000000080008070:  2781              sext.w          a5,a5
0x0000000080008072:  4705              addi            a4,zero,1
0x0000000080008074:  02f77863          bleu            a5,a4,48        # 0x800080a4

----------------
IN: 
0x0000000080008078:  01854703          lbu             a4,24(a0)
0x000000008000807c:  01954783          lbu             a5,25(a0)
0x0000000080008080:  01b54603          lbu             a2,27(a0)
0x0000000080008084:  01a54683          lbu             a3,26(a0)
0x0000000080008088:  0187171b          slliw           a4,a4,24
0x000000008000808c:  0107979b          slliw           a5,a5,16
0x0000000080008090:  8fd9              or              a5,a5,a4
0x0000000080008092:  8fd1              or              a5,a5,a2
0x0000000080008094:  0086971b          slliw           a4,a3,8
0x0000000080008098:  8fd9              or              a5,a5,a4
0x000000008000809a:  2781              sext.w          a5,a5
0x000000008000809c:  4745              addi            a4,zero,17
0x000000008000809e:  4501              mv              a0,zero
0x00000000800080a0:  faf774e3          bleu            a5,a4,-88       # 0x80008048

----------------
IN: 
0x0000000080008048:  6422              ld              s0,8(sp)
0x000000008000804a:  0141              addi            sp,sp,16
0x000000008000804c:  8082              ret             

----------------
IN: 
0x0000000080007e94:  87aa              mv              a5,a0
0x0000000080007e96:  c911              beqz            a0,20           # 0x80007eaa

----------------
IN: 
0x0000000080007eaa:  85a6              mv              a1,s1
0x0000000080007eac:  4601              mv              a2,zero
0x0000000080007eae:  854a              mv              a0,s2
0x0000000080007eb0:  6ce000ef          jal             ra,1742         # 0x8000857e

----------------
IN: 
0x000000008000857e:  715d              addi            sp,sp,-80
0x0000000080008580:  e0a2              sd              s0,64(sp)
0x0000000080008582:  f84a              sd              s2,48(sp)
0x0000000080008584:  f44e              sd              s3,40(sp)
0x0000000080008586:  0880              addi            s0,sp,80
0x0000000080008588:  e486              sd              ra,72(sp)
0x000000008000858a:  fc26              sd              s1,56(sp)
0x000000008000858c:  f052              sd              s4,32(sp)
0x000000008000858e:  ec56              sd              s5,24(sp)
0x0000000080008590:  e85a              sd              s6,16(sp)
0x0000000080008592:  fa042e23          sw              zero,-68(s0)
0x0000000080008596:  89aa              mv              s3,a0
0x0000000080008598:  8932              mv              s2,a2
0x000000008000859a:  0805d963          bgez            a1,146          # 0x8000862c

----------------
IN: 
0x000000008000862c:  ee7ff0ef          jal             ra,-282         # 0x80008512

----------------
IN: 
0x0000000080008512:  1101              addi            sp,sp,-32
0x0000000080008514:  e822              sd              s0,16(sp)
0x0000000080008516:  ec06              sd              ra,24(sp)
0x0000000080008518:  1000              addi            s0,sp,32
0x000000008000851a:  feb42623          sw              a1,-20(s0)
0x000000008000851e:  0205c363          bltz            a1,38           # 0x80008544

----------------
IN: 
0x0000000080008522:  0035f793          andi            a5,a1,3
0x0000000080008526:  ef99              bnez            a5,30           # 0x80008544

----------------
IN: 
0x0000000080008528:  fec40613          addi            a2,s0,-20
0x000000008000852c:  eabff0ef          jal             ra,-342         # 0x800083d6

----------------
IN: 
0x00000000800083d6:  7139              addi            sp,sp,-64
0x00000000800083d8:  f822              sd              s0,48(sp)
0x00000000800083da:  ec4e              sd              s3,24(sp)
0x00000000800083dc:  e852              sd              s4,16(sp)
0x00000000800083de:  e456              sd              s5,8(sp)
0x00000000800083e0:  fc06              sd              ra,56(sp)
0x00000000800083e2:  f426              sd              s1,40(sp)
0x00000000800083e4:  f04a              sd              s2,32(sp)
0x00000000800083e6:  e05a              sd              s6,0(sp)
0x00000000800083e8:  0080              addi            s0,sp,64
0x00000000800083ea:  57e1              addi            a5,zero,-8
0x00000000800083ec:  89b2              mv              s3,a2
0x00000000800083ee:  c21c              sw              a5,0(a2)
0x00000000800083f0:  4611              addi            a2,zero,4
0x00000000800083f2:  8a2a              mv              s4,a0
0x00000000800083f4:  8aae              mv              s5,a1
0x00000000800083f6:  efbff0ef          jal             ra,-262         # 0x800082f0

----------------
IN: 
0x00000000800082f0:  1141              addi            sp,sp,-16
0x00000000800082f2:  e422              sd              s0,8(sp)
0x00000000800082f4:  0800              addi            s0,sp,16
0x00000000800082f6:  00854783          lbu             a5,8(a0)
0x00000000800082fa:  00954683          lbu             a3,9(a0)
0x00000000800082fe:  00b54803          lbu             a6,11(a0)
0x0000000080008302:  00a54703          lbu             a4,10(a0)
0x0000000080008306:  0187979b          slliw           a5,a5,24
0x000000008000830a:  0106969b          slliw           a3,a3,16
0x000000008000830e:  8fd5              or              a5,a5,a3
0x0000000080008310:  0107e7b3          or              a5,a5,a6
0x0000000080008314:  0087171b          slliw           a4,a4,8
0x0000000080008318:  8fd9              or              a5,a5,a4
0x000000008000831a:  2781              sext.w          a5,a5
0x000000008000831c:  0005881b          sext.w          a6,a1
0x0000000080008320:  00f808bb          addw            a7,a6,a5
0x0000000080008324:  0b08e563          bgtu            a6,a7,170       # 0x800083ce

----------------
IN: 
0x0000000080008328:  00c886bb          addw            a3,a7,a2
0x000000008000832c:  0b16e163          bgtu            a7,a3,162       # 0x800083ce

----------------
IN: 
0x0000000080008330:  00454703          lbu             a4,4(a0)
0x0000000080008334:  00554303          lbu             t1,5(a0)
0x0000000080008338:  00754e03          lbu             t3,7(a0)
0x000000008000833c:  00654883          lbu             a7,6(a0)
0x0000000080008340:  0187171b          slliw           a4,a4,24
0x0000000080008344:  0103131b          slliw           t1,t1,16
0x0000000080008348:  00676733          or              a4,a4,t1
0x000000008000834c:  01c76733          or              a4,a4,t3
0x0000000080008350:  0088989b          slliw           a7,a7,8
0x0000000080008354:  01176733          or              a4,a4,a7
0x0000000080008358:  2701              sext.w          a4,a4
0x000000008000835a:  06d76a63          bgtu            a3,a4,116       # 0x800083ce

----------------
IN: 
0x000000008000835e:  01454703          lbu             a4,20(a0)
0x0000000080008362:  01554883          lbu             a7,21(a0)
0x0000000080008366:  01754303          lbu             t1,23(a0)
0x000000008000836a:  01654683          lbu             a3,22(a0)
0x000000008000836e:  0187171b          slliw           a4,a4,24
0x0000000080008372:  0108989b          slliw           a7,a7,16
0x0000000080008376:  01176733          or              a4,a4,a7
0x000000008000837a:  0086969b          slliw           a3,a3,8
0x000000008000837e:  00676733          or              a4,a4,t1
0x0000000080008382:  8f55              or              a4,a4,a3
0x0000000080008384:  2701              sext.w          a4,a4
0x0000000080008386:  46c1              addi            a3,zero,16
0x0000000080008388:  02e6fc63          bleu            a4,a3,56        # 0x800083c0

----------------
IN: 
0x000000008000838c:  00c8063b          addw            a2,a6,a2
0x0000000080008390:  03066f63          bgtu            a6,a2,62        # 0x800083ce

----------------
IN: 
0x0000000080008394:  02454703          lbu             a4,36(a0)
0x0000000080008398:  02554803          lbu             a6,37(a0)
0x000000008000839c:  02754883          lbu             a7,39(a0)
0x00000000800083a0:  02654683          lbu             a3,38(a0)
0x00000000800083a4:  0187171b          slliw           a4,a4,24
0x00000000800083a8:  0108181b          slliw           a6,a6,16
0x00000000800083ac:  01076733          or              a4,a4,a6
0x00000000800083b0:  01176733          or              a4,a4,a7
0x00000000800083b4:  0086969b          slliw           a3,a3,8
0x00000000800083b8:  8f55              or              a4,a4,a3
0x00000000800083ba:  2701              sext.w          a4,a4
0x00000000800083bc:  00c76963          bgtu            a2,a4,18        # 0x800083ce

----------------
IN: 
0x00000000800083c0:  6422              ld              s0,8(sp)
0x00000000800083c2:  1782              slli            a5,a5,32
0x00000000800083c4:  9381              srli            a5,a5,32
0x00000000800083c6:  97ae              add             a5,a5,a1
0x00000000800083c8:  953e              add             a0,a0,a5
0x00000000800083ca:  0141              addi            sp,sp,16
0x00000000800083cc:  8082              ret             

----------------
IN: 
0x00000000800083fa:  c925              beqz            a0,112          # 0x8000846a

----------------
IN: 
0x00000000800083fc:  411c              lw              a5,0(a0)
0x00000000800083fe:  000a8b1b          sext.w          s6,s5
0x0000000080008402:  004b049b          addiw           s1,s6,4
0x0000000080008406:  0087d713          srli            a4,a5,8
0x000000008000840a:  0187991b          slliw           s2,a5,24
0x000000008000840e:  0187d69b          srliw           a3,a5,24
0x0000000080008412:  0ff77713          andi            a4,a4,255
0x0000000080008416:  83c1              srli            a5,a5,16
0x0000000080008418:  00d96933          or              s2,s2,a3
0x000000008000841c:  0107171b          slliw           a4,a4,16
0x0000000080008420:  0ff7f793          andi            a5,a5,255
0x0000000080008424:  0087979b          slliw           a5,a5,8
0x0000000080008428:  00e96933          or              s2,s2,a4
0x000000008000842c:  00f96933          or              s2,s2,a5
0x0000000080008430:  57d5              addi            a5,zero,-11
0x0000000080008432:  00f9a023          sw              a5,0(s3)
0x0000000080008436:  2901              sext.w          s2,s2
0x0000000080008438:  47a5              addi            a5,zero,9
0x000000008000843a:  0327e863          bgtu            s2,a5,48        # 0x8000846a

----------------
IN: 
0x000000008000843e:  02091793          slli            a5,s2,32
0x0000000080008442:  9381              srli            a5,a5,32
0x0000000080008444:  00001717          auipc           a4,4096         # 0x80009444
0x0000000080008448:  5fc70713          addi            a4,a4,1532
0x000000008000844c:  078a              slli            a5,a5,2
0x000000008000844e:  97ba              add             a5,a5,a4
0x0000000080008450:  439c              lw              a5,0(a5)
0x0000000080008452:  97ba              add             a5,a5,a4
0x0000000080008454:  8782              jr              a5

----------------
IN: 
0x000000008000845c:  85a6              mv              a1,s1
0x000000008000845e:  4605              addi            a2,zero,1
0x0000000080008460:  8552              mv              a0,s4
0x0000000080008462:  e8fff0ef          jal             ra,-370         # 0x800082f0

----------------
IN: 
0x0000000080008466:  2485              addiw           s1,s1,1
0x0000000080008468:  f57d              bnez            a0,-18          # 0x80008456

----------------
IN: 
0x0000000080008456:  00054783          lbu             a5,0(a0)
0x000000008000845a:  c7d1              beqz            a5,140          # 0x800084e6

----------------
IN: 
0x00000000800084e6:  4154863b          subw            a2,s1,s5
0x00000000800084ea:  85d6              mv              a1,s5
0x00000000800084ec:  8552              mv              a0,s4
0x00000000800084ee:  e03ff0ef          jal             ra,-510         # 0x800082f0

----------------
IN: 
0x00000000800084f2:  dd25              beqz            a0,-136         # 0x8000846a

----------------
IN: 
0x00000000800084f4:  248d              addiw           s1,s1,3
0x00000000800084f6:  98f1              andi            s1,s1,-4
0x00000000800084f8:  0099a023          sw              s1,0(s3)
0x00000000800084fc:  70e2              ld              ra,56(sp)
0x00000000800084fe:  7442              ld              s0,48(sp)
0x0000000080008500:  854a              mv              a0,s2
0x0000000080008502:  74a2              ld              s1,40(sp)
0x0000000080008504:  7902              ld              s2,32(sp)
0x0000000080008506:  69e2              ld              s3,24(sp)
0x0000000080008508:  6a42              ld              s4,16(sp)
0x000000008000850a:  6aa2              ld              s5,8(sp)
0x000000008000850c:  6b02              ld              s6,0(sp)
0x000000008000850e:  6121              addi            sp,sp,64
0x0000000080008510:  8082              ret             

----------------
IN: 
0x0000000080008530:  2501              sext.w          a0,a0
0x0000000080008532:  4785              addi            a5,zero,1
0x0000000080008534:  00f51863          bne             a0,a5,16        # 0x80008544

----------------
IN: 
0x0000000080008538:  fec42503          lw              a0,-20(s0)
0x000000008000853c:  60e2              ld              ra,24(sp)
0x000000008000853e:  6442              ld              s0,16(sp)
0x0000000080008540:  6105              addi            sp,sp,32
0x0000000080008542:  8082              ret             

----------------
IN: 
0x0000000080008630:  faa42e23          sw              a0,-68(s0)
0x0000000080008634:  84aa              mv              s1,a0
0x0000000080008636:  f60555e3          bgez            a0,-150         # 0x800085a0

----------------
IN: 
0x00000000800085a0:  85a6              mv              a1,s1
0x00000000800085a2:  fbc40613          addi            a2,s0,-68
0x00000000800085a6:  854e              mv              a0,s3
0x00000000800085a8:  e2fff0ef          jal             ra,-466         # 0x800083d6

----------------
IN: 
0x000000008000846e:  4611              addi            a2,zero,4
0x0000000080008470:  85a6              mv              a1,s1
0x0000000080008472:  8552              mv              a0,s4
0x0000000080008474:  e7dff0ef          jal             ra,-388         # 0x800082f0

----------------
IN: 
0x0000000080008478:  d96d              beqz            a0,-14          # 0x8000846a

----------------
IN: 
0x000000008000847a:  4118              lw              a4,0(a0)
0x000000008000847c:  014a4783          lbu             a5,20(s4)
0x0000000080008480:  015a4503          lbu             a0,21(s4)
0x0000000080008484:  00875613          srli            a2,a4,8
0x0000000080008488:  0187169b          slliw           a3,a4,24
0x000000008000848c:  0187589b          srliw           a7,a4,24
0x0000000080008490:  0ff67613          andi            a2,a2,255
0x0000000080008494:  8341              srli            a4,a4,16
0x0000000080008496:  017a4803          lbu             a6,23(s4)
0x000000008000849a:  016a4583          lbu             a1,22(s4)
0x000000008000849e:  0106161b          slliw           a2,a2,16
0x00000000800084a2:  0116e6b3          or              a3,a3,a7
0x00000000800084a6:  0ff77713          andi            a4,a4,255
0x00000000800084aa:  0187979b          slliw           a5,a5,24
0x00000000800084ae:  0105151b          slliw           a0,a0,16
0x00000000800084b2:  8ed1              or              a3,a3,a2
0x00000000800084b4:  0087171b          slliw           a4,a4,8
0x00000000800084b8:  8fc9              or              a5,a5,a0
0x00000000800084ba:  8f55              or              a4,a4,a3
0x00000000800084bc:  0107e7b3          or              a5,a5,a6
0x00000000800084c0:  0085969b          slliw           a3,a1,8
0x00000000800084c4:  8fd5              or              a5,a5,a3
0x00000000800084c6:  2701              sext.w          a4,a4
0x00000000800084c8:  2b31              addiw           s6,s6,12
0x00000000800084ca:  2781              sext.w          a5,a5
0x00000000800084cc:  463d              addi            a2,zero,15
0x00000000800084ce:  00eb04bb          addw            s1,s6,a4
0x00000000800084d2:  00f66a63          bgtu            a5,a2,20        # 0x800084e6

----------------
IN: 
0x00000000800085ac:  4b09              addi            s6,zero,2
0x00000000800085ae:  2501              sext.w          a0,a0
0x00000000800085b0:  4aa5              addi            s5,zero,9
0x00000000800085b2:  4a05              addi            s4,zero,1
0x00000000800085b4:  03650163          beq             a0,s6,34        # 0x800085d6

----------------
IN: 
0x00000000800085b8:  05550f63          beq             a0,s5,94        # 0x80008616

----------------
IN: 
0x00000000800085bc:  03450b63          beq             a0,s4,54        # 0x800085f2

----------------
IN: 
0x00000000800085c0:  fbc42483          lw              s1,-68(s0)
0x00000000800085c4:  fbc40613          addi            a2,s0,-68
0x00000000800085c8:  854e              mv              a0,s3
0x00000000800085ca:  85a6              mv              a1,s1
0x00000000800085cc:  e0bff0ef          jal             ra,-502         # 0x800083d6

----------------
IN: 
0x00000000800085d0:  2501              sext.w          a0,a0
0x00000000800085d2:  ff6513e3          bne             a0,s6,-26       # 0x800085b8

----------------
IN: 
0x00000000800085f2:  00090763          beqz            s2,14           # 0x80008600

----------------
IN: 
0x0000000080008600:  60a6              ld              ra,72(sp)
0x0000000080008602:  6406              ld              s0,64(sp)
0x0000000080008604:  8526              mv              a0,s1
0x0000000080008606:  7942              ld              s2,48(sp)
0x0000000080008608:  74e2              ld              s1,56(sp)
0x000000008000860a:  79a2              ld              s3,40(sp)
0x000000008000860c:  7a02              ld              s4,32(sp)
0x000000008000860e:  6ae2              ld              s5,24(sp)
0x0000000080008610:  6b42              ld              s6,16(sp)
0x0000000080008612:  6161              addi            sp,sp,80
0x0000000080008614:  8082              ret             

----------------
IN: 
0x0000000080007eb4:  84aa              mv              s1,a0
0x0000000080007eb6:  87aa              mv              a5,a0
0x0000000080007eb8:  fe0540e3          bltz            a0,-32          # 0x80007e98

----------------
IN: 
0x0000000080007ebc:  5a7d              addi            s4,zero,-1
0x0000000080007ebe:  a031              j               12              # 0x80007eca

----------------
IN: 
0x0000000080007eca:  85a6              mv              a1,s1
0x0000000080007ecc:  864e              mv              a2,s3
0x0000000080007ece:  854a              mv              a0,s2
0x0000000080007ed0:  f43ff0ef          jal             ra,-190         # 0x80007e12

----------------
IN: 
0x0000000080007e12:  7139              addi            sp,sp,-64
0x0000000080007e14:  f822              sd              s0,48(sp)
0x0000000080007e16:  f426              sd              s1,40(sp)
0x0000000080007e18:  f04a              sd              s2,32(sp)
0x0000000080007e1a:  ec4e              sd              s3,24(sp)
0x0000000080007e1c:  0080              addi            s0,sp,64
0x0000000080007e1e:  fc06              sd              ra,56(sp)
0x0000000080007e20:  84aa              mv              s1,a0
0x0000000080007e22:  00002517          auipc           a0,8192         # 0x80009e22
0x0000000080007e26:  c0e50513          addi            a0,a0,-1010
0x0000000080007e2a:  892e              mv              s2,a1
0x0000000080007e2c:  89b2              mv              s3,a2
0x0000000080007e2e:  ef9fa0ef          jal             ra,-20744       # 0x80002d26

----------------
IN: 
0x0000000080002d26:  1141              addi            sp,sp,-16
0x0000000080002d28:  e422              sd              s0,8(sp)
0x0000000080002d2a:  0800              addi            s0,sp,16
0x0000000080002d2c:  00054783          lbu             a5,0(a0)
0x0000000080002d30:  cf81              beqz            a5,24           # 0x80002d48

----------------
IN: 
0x0000000080002d32:  4781              mv              a5,zero
0x0000000080002d34:  0785              addi            a5,a5,1
0x0000000080002d36:  00f50733          add             a4,a0,a5
0x0000000080002d3a:  00074703          lbu             a4,0(a4)
0x0000000080002d3e:  fb7d              bnez            a4,-10          # 0x80002d34

----------------
IN: 
0x0000000080002d34:  0785              addi            a5,a5,1
0x0000000080002d36:  00f50733          add             a4,a0,a5
0x0000000080002d3a:  00074703          lbu             a4,0(a4)
0x0000000080002d3e:  fb7d              bnez            a4,-10          # 0x80002d34

----------------
IN: 
0x0000000080002d40:  6422              ld              s0,8(sp)
0x0000000080002d42:  853e              mv              a0,a5
0x0000000080002d44:  0141              addi            sp,sp,16
0x0000000080002d46:  8082              ret             

----------------
IN: 
0x0000000080007e32:  0005069b          sext.w          a3,a0
0x0000000080007e36:  fcc40713          addi            a4,s0,-52
0x0000000080007e3a:  00002617          auipc           a2,8192         # 0x80009e3a
0x0000000080007e3e:  bf660613          addi            a2,a2,-1034
0x0000000080007e42:  85ca              mv              a1,s2
0x0000000080007e44:  8526              mv              a0,s1
0x0000000080007e46:  df2ff0ef          jal             ra,-2574        # 0x80007438

----------------
IN: 
0x0000000080007438:  7179              addi            sp,sp,-48
0x000000008000743a:  f022              sd              s0,32(sp)
0x000000008000743c:  ec26              sd              s1,24(sp)
0x000000008000743e:  1800              addi            s0,sp,48
0x0000000080007440:  f406              sd              ra,40(sp)
0x0000000080007442:  fdc40793          addi            a5,s0,-36
0x0000000080007446:  84aa              mv              s1,a0
0x0000000080007448:  e5bff0ef          jal             ra,-422         # 0x800072a2

----------------
IN: 
0x00000000800072a2:  711d              addi            sp,sp,-96
0x00000000800072a4:  e8a2              sd              s0,80(sp)
0x00000000800072a6:  e4a6              sd              s1,72(sp)
0x00000000800072a8:  e0ca              sd              s2,64(sp)
0x00000000800072aa:  fc4e              sd              s3,56(sp)
0x00000000800072ac:  f852              sd              s4,48(sp)
0x00000000800072ae:  f456              sd              s5,40(sp)
0x00000000800072b0:  f05a              sd              s6,32(sp)
0x00000000800072b2:  ec86              sd              ra,88(sp)
0x00000000800072b4:  ec5e              sd              s7,24(sp)
0x00000000800072b6:  1080              addi            s0,sp,96
0x00000000800072b8:  892a              mv              s2,a0
0x00000000800072ba:  8ab2              mv              s5,a2
0x00000000800072bc:  8a36              mv              s4,a3
0x00000000800072be:  89ba              mv              s3,a4
0x00000000800072c0:  8b3e              mv              s6,a5
0x00000000800072c2:  f95ff0ef          jal             ra,-108         # 0x80007256

----------------
IN: 
0x0000000080007256:  1101              addi            sp,sp,-32
0x0000000080007258:  e822              sd              s0,16(sp)
0x000000008000725a:  e426              sd              s1,8(sp)
0x000000008000725c:  ec06              sd              ra,24(sp)
0x000000008000725e:  1000              addi            s0,sp,32
0x0000000080007260:  84aa              mv              s1,a0
0x0000000080007262:  2b0010ef          jal             ra,4784         # 0x80008512

----------------
IN: 
0x0000000080007266:  00054663          bltz            a0,12           # 0x80007272

----------------
IN: 
0x000000008000726a:  85aa              mv              a1,a0
0x000000008000726c:  8526              mv              a0,s1
0x000000008000726e:  abfff0ef          jal             ra,-1346        # 0x80006d2c

----------------
IN: 
0x0000000080006d2c:  715d              addi            sp,sp,-80
0x0000000080006d2e:  e0a2              sd              s0,64(sp)
0x0000000080006d30:  fc26              sd              s1,56(sp)
0x0000000080006d32:  f84a              sd              s2,48(sp)
0x0000000080006d34:  f44e              sd              s3,40(sp)
0x0000000080006d36:  f052              sd              s4,32(sp)
0x0000000080006d38:  ec56              sd              s5,24(sp)
0x0000000080006d3a:  e486              sd              ra,72(sp)
0x0000000080006d3c:  0880              addi            s0,sp,80
0x0000000080006d3e:  8a2a              mv              s4,a0
0x0000000080006d40:  84ae              mv              s1,a1
0x0000000080006d42:  498d              addi            s3,zero,3
0x0000000080006d44:  4925              addi            s2,zero,9
0x0000000080006d46:  4a91              addi            s5,zero,4
0x0000000080006d48:  85a6              mv              a1,s1
0x0000000080006d4a:  fbc40613          addi            a2,s0,-68
0x0000000080006d4e:  8552              mv              a0,s4
0x0000000080006d50:  686010ef          jal             ra,5766         # 0x800083d6

----------------
IN: 
0x0000000080006d54:  2501              sext.w          a0,a0
0x0000000080006d56:  03350163          beq             a0,s3,34        # 0x80006d78

----------------
IN: 
0x0000000080006d78:  8526              mv              a0,s1
0x0000000080006d7a:  b7f5              j               -20             # 0x80006d66

----------------
IN: 
0x0000000080006d66:  60a6              ld              ra,72(sp)
0x0000000080006d68:  6406              ld              s0,64(sp)
0x0000000080006d6a:  74e2              ld              s1,56(sp)
0x0000000080006d6c:  7942              ld              s2,48(sp)
0x0000000080006d6e:  79a2              ld              s3,40(sp)
0x0000000080006d70:  7a02              ld              s4,32(sp)
0x0000000080006d72:  6ae2              ld              s5,24(sp)
0x0000000080006d74:  6161              addi            sp,sp,80
0x0000000080006d76:  8082              ret             

----------------
IN: 
0x0000000080007272:  60e2              ld              ra,24(sp)
0x0000000080007274:  6442              ld              s0,16(sp)
0x0000000080007276:  64a2              ld              s1,8(sp)
0x0000000080007278:  6105              addi            sp,sp,32
0x000000008000727a:  8082              ret             

----------------
IN: 
0x00000000800072c6:  84aa              mv              s1,a0
0x00000000800072c8:  00055a63          bgez            a0,20           # 0x800072dc

----------------
IN: 
0x00000000800072dc:  864e              mv              a2,s3
0x00000000800072de:  85a6              mv              a1,s1
0x00000000800072e0:  854a              mv              a0,s2
0x00000000800072e2:  9c3ff0ef          jal             ra,-1598        # 0x80006ca4

----------------
IN: 
0x0000000080006ca4:  7179              addi            sp,sp,-48
0x0000000080006ca6:  f022              sd              s0,32(sp)
0x0000000080006ca8:  ec26              sd              s1,24(sp)
0x0000000080006caa:  e84a              sd              s2,16(sp)
0x0000000080006cac:  e44e              sd              s3,8(sp)
0x0000000080006cae:  f406              sd              ra,40(sp)
0x0000000080006cb0:  1800              addi            s0,sp,48
0x0000000080006cb2:  84aa              mv              s1,a0
0x0000000080006cb4:  892e              mv              s2,a1
0x0000000080006cb6:  89b2              mv              s3,a2
0x0000000080006cb8:  091010ef          jal             ra,6288         # 0x80008548

----------------
IN: 
0x0000000080008548:  1101              addi            sp,sp,-32
0x000000008000854a:  e822              sd              s0,16(sp)
0x000000008000854c:  ec06              sd              ra,24(sp)
0x000000008000854e:  1000              addi            s0,sp,32
0x0000000080008550:  feb42623          sw              a1,-20(s0)
0x0000000080008554:  0205c363          bltz            a1,38           # 0x8000857a

----------------
IN: 
0x0000000080008558:  0035f793          andi            a5,a1,3
0x000000008000855c:  ef99              bnez            a5,30           # 0x8000857a

----------------
IN: 
0x000000008000855e:  fec40613          addi            a2,s0,-20
0x0000000080008562:  e75ff0ef          jal             ra,-396         # 0x800083d6

----------------
IN: 
0x0000000080008566:  2501              sext.w          a0,a0
0x0000000080008568:  478d              addi            a5,zero,3
0x000000008000856a:  00f51863          bne             a0,a5,16        # 0x8000857a

----------------
IN: 
0x000000008000856e:  fec42503          lw              a0,-20(s0)
0x0000000080008572:  60e2              ld              ra,24(sp)
0x0000000080008574:  6442              ld              s0,16(sp)
0x0000000080008576:  6105              addi            sp,sp,32
0x0000000080008578:  8082              ret             

----------------
IN: 
0x0000000080006cbc:  06054363          bltz            a0,102          # 0x80006d22

----------------
IN: 
0x0000000080006cc0:  0084c503          lbu             a0,8(s1)
0x0000000080006cc4:  0094c703          lbu             a4,9(s1)
0x0000000080006cc8:  00b4c683          lbu             a3,11(s1)
0x0000000080006ccc:  00a4c783          lbu             a5,10(s1)
0x0000000080006cd0:  0185151b          slliw           a0,a0,24
0x0000000080006cd4:  0107171b          slliw           a4,a4,16
0x0000000080006cd8:  8d59              or              a0,a0,a4
0x0000000080006cda:  8d55              or              a0,a0,a3
0x0000000080006cdc:  0087979b          slliw           a5,a5,8
0x0000000080006ce0:  8d5d              or              a0,a0,a5
0x0000000080006ce2:  1502              slli            a0,a0,32
0x0000000080006ce4:  9101              srli            a0,a0,32
0x0000000080006ce6:  954a              add             a0,a0,s2
0x0000000080006ce8:  9526              add             a0,a0,s1
0x0000000080006cea:  02098563          beqz            s3,42           # 0x80006d14

----------------
IN: 
0x0000000080006cee:  00454783          lbu             a5,4(a0)
0x0000000080006cf2:  00554683          lbu             a3,5(a0)
0x0000000080006cf6:  00754603          lbu             a2,7(a0)
0x0000000080006cfa:  00654703          lbu             a4,6(a0)
0x0000000080006cfe:  0187979b          slliw           a5,a5,24
0x0000000080006d02:  0106969b          slliw           a3,a3,16
0x0000000080006d06:  8fd5              or              a5,a5,a3
0x0000000080006d08:  8fd1              or              a5,a5,a2
0x0000000080006d0a:  0087171b          slliw           a4,a4,8
0x0000000080006d0e:  8fd9              or              a5,a5,a4
0x0000000080006d10:  00f9a023          sw              a5,0(s3)
0x0000000080006d14:  70a2              ld              ra,40(sp)
0x0000000080006d16:  7402              ld              s0,32(sp)
0x0000000080006d18:  64e2              ld              s1,24(sp)
0x0000000080006d1a:  6942              ld              s2,16(sp)
0x0000000080006d1c:  69a2              ld              s3,8(sp)
0x0000000080006d1e:  6145              addi            sp,sp,48
0x0000000080006d20:  8082              ret             

----------------
IN: 
0x00000000800072e6:  8baa              mv              s7,a0
0x00000000800072e8:  fac40613          addi            a2,s0,-84
0x00000000800072ec:  854a              mv              a0,s2
0x00000000800072ee:  060b8063          beqz            s7,96           # 0x8000734e

----------------
IN: 
0x00000000800072f2:  008bc583          lbu             a1,8(s7)
0x00000000800072f6:  009bc703          lbu             a4,9(s7)
0x00000000800072fa:  00bbc683          lbu             a3,11(s7)
0x00000000800072fe:  00abc783          lbu             a5,10(s7)
0x0000000080007302:  0185959b          slliw           a1,a1,24
0x0000000080007306:  0107171b          slliw           a4,a4,16
0x000000008000730a:  8dd9              or              a1,a1,a4
0x000000008000730c:  8dd5              or              a1,a1,a3
0x000000008000730e:  0087979b          slliw           a5,a5,8
0x0000000080007312:  8ddd              or              a1,a1,a5
0x0000000080007314:  2581              sext.w          a1,a1
0x0000000080007316:  a77ff0ef          jal             ra,-1418        # 0x80006d8c

----------------
IN: 
0x0000000080006d8c:  715d              addi            sp,sp,-80
0x0000000080006d8e:  e0a2              sd              s0,64(sp)
0x0000000080006d90:  fc26              sd              s1,56(sp)
0x0000000080006d92:  f44e              sd              s3,40(sp)
0x0000000080006d94:  f052              sd              s4,32(sp)
0x0000000080006d96:  e486              sd              ra,72(sp)
0x0000000080006d98:  f84a              sd              s2,48(sp)
0x0000000080006d9a:  ec56              sd              s5,24(sp)
0x0000000080006d9c:  e85a              sd              s6,16(sp)
0x0000000080006d9e:  e45e              sd              s7,8(sp)
0x0000000080006da0:  0880              addi            s0,sp,80
0x0000000080006da2:  84aa              mv              s1,a0
0x0000000080006da4:  8a2e              mv              s4,a1
0x0000000080006da6:  89b2              mv              s3,a2
0x0000000080006da8:  00c54b83          lbu             s7,12(a0)
0x0000000080006dac:  00d54903          lbu             s2,13(a0)
0x0000000080006db0:  00e54a83          lbu             s5,14(a0)
0x0000000080006db4:  00f54b03          lbu             s6,15(a0)
0x0000000080006db8:  226010ef          jal             ra,4646         # 0x80007fde

----------------
IN: 
0x0000000080006dbc:  14051563          bnez            a0,330          # 0x80006f06

----------------
IN: 
0x0000000080006dc0:  0044c603          lbu             a2,4(s1)
0x0000000080006dc4:  0054c683          lbu             a3,5(s1)
0x0000000080006dc8:  0109179b          slliw           a5,s2,16
0x0000000080006dcc:  018b9b9b          slliw           s7,s7,24
0x0000000080006dd0:  0074c503          lbu             a0,7(s1)
0x0000000080006dd4:  0064c703          lbu             a4,6(s1)
0x0000000080006dd8:  0177e7b3          or              a5,a5,s7
0x0000000080006ddc:  0186161b          slliw           a2,a2,24
0x0000000080006de0:  0106969b          slliw           a3,a3,16
0x0000000080006de4:  0167e7b3          or              a5,a5,s6
0x0000000080006de8:  008a9a9b          slliw           s5,s5,8
0x0000000080006dec:  8e55              or              a2,a2,a3
0x0000000080006dee:  0087171b          slliw           a4,a4,8
0x0000000080006df2:  000a059b          sext.w          a1,s4
0x0000000080006df6:  0157e7b3          or              a5,a5,s5
0x0000000080006dfa:  8e49              or              a2,a2,a0
0x0000000080006dfc:  8e59              or              a2,a2,a4
0x0000000080006dfe:  9fad              addw            a5,a5,a1
0x0000000080006e00:  0007871b          sext.w          a4,a5
0x0000000080006e04:  2601              sext.w          a2,a2
0x0000000080006e06:  0ec77f63          bleu            a2,a4,254       # 0x80006f04

----------------
IN: 
0x0000000080006e0a:  0004c703          lbu             a4,0(s1)
0x0000000080006e0e:  0014c503          lbu             a0,1(s1)
0x0000000080006e12:  0034c803          lbu             a6,3(s1)
0x0000000080006e16:  0024c683          lbu             a3,2(s1)
0x0000000080006e1a:  0105151b          slliw           a0,a0,16
0x0000000080006e1e:  0187171b          slliw           a4,a4,24
0x0000000080006e22:  8f49              or              a4,a4,a0
0x0000000080006e24:  0086969b          slliw           a3,a3,8
0x0000000080006e28:  01076733          or              a4,a4,a6
0x0000000080006e2c:  8f55              or              a4,a4,a3
0x0000000080006e2e:  9e1d              subw            a2,a2,a5
0x0000000080006e30:  d00e06b7          lui             a3,-804388864
0x0000000080006e34:  0006051b          sext.w          a0,a2
0x0000000080006e38:  2701              sext.w          a4,a4
0x0000000080006e3a:  1602              slli            a2,a2,32
0x0000000080006e3c:  eed68693          addi            a3,a3,-275
0x0000000080006e40:  9201              srli            a2,a2,32
0x0000000080006e42:  06d70263          beq             a4,a3,100       # 0x80006ea6

----------------
IN: 
0x0000000080006ea6:  040a4f63          bltz            s4,94           # 0x80006f04

----------------
IN: 
0x0000000080006eaa:  0144c703          lbu             a4,20(s1)
0x0000000080006eae:  0154c803          lbu             a6,21(s1)
0x0000000080006eb2:  0174c883          lbu             a7,23(s1)
0x0000000080006eb6:  0164c683          lbu             a3,22(s1)
0x0000000080006eba:  0187171b          slliw           a4,a4,24
0x0000000080006ebe:  0108181b          slliw           a6,a6,16
0x0000000080006ec2:  01076733          or              a4,a4,a6
0x0000000080006ec6:  0086969b          slliw           a3,a3,8
0x0000000080006eca:  01176733          or              a4,a4,a7
0x0000000080006ece:  8f55              or              a4,a4,a3
0x0000000080006ed0:  2701              sext.w          a4,a4
0x0000000080006ed2:  46c1              addi            a3,zero,16
0x0000000080006ed4:  fae6fbe3          bleu            a4,a3,-74       # 0x80006e8a

----------------
IN: 
0x0000000080006ed8:  0204c703          lbu             a4,32(s1)
0x0000000080006edc:  0214c803          lbu             a6,33(s1)
0x0000000080006ee0:  0234c883          lbu             a7,35(s1)
0x0000000080006ee4:  0224c683          lbu             a3,34(s1)
0x0000000080006ee8:  0187171b          slliw           a4,a4,24
0x0000000080006eec:  0108181b          slliw           a6,a6,16
0x0000000080006ef0:  01076733          or              a4,a4,a6
0x0000000080006ef4:  01176733          or              a4,a4,a7
0x0000000080006ef8:  0086969b          slliw           a3,a3,8
0x0000000080006efc:  8f55              or              a4,a4,a3
0x0000000080006efe:  2701              sext.w          a4,a4
0x0000000080006f00:  02e5e663          bgtu            a4,a1,44        # 0x80006f2c

----------------
IN: 
0x0000000080006f2c:  40b705bb          subw            a1,a4,a1
0x0000000080006f30:  0005871b          sext.w          a4,a1
0x0000000080006f34:  f4a77be3          bleu            a0,a4,-170      # 0x80006e8a

----------------
IN: 
0x0000000080006e8a:  1782              slli            a5,a5,32
0x0000000080006e8c:  9381              srli            a5,a5,32
0x0000000080006e8e:  94be              add             s1,s1,a5
0x0000000080006e90:  4581              mv              a1,zero
0x0000000080006e92:  8526              mv              a0,s1
0x0000000080006e94:  87cfc0ef          jal             ra,-16260       # 0x80002f10

----------------
IN: 
0x0000000080002f10:  1141              addi            sp,sp,-16
0x0000000080002f12:  e422              sd              s0,8(sp)
0x0000000080002f14:  0800              addi            s0,sp,16
0x0000000080002f16:  c605              beqz            a2,40           # 0x80002f3e

----------------
IN: 
0x0000000080002f18:  00054703          lbu             a4,0(a0)
0x0000000080002f1c:  0ff5f593          andi            a1,a1,255
0x0000000080002f20:  00150793          addi            a5,a0,1
0x0000000080002f24:  02b70263          beq             a4,a1,36        # 0x80002f48

----------------
IN: 
0x0000000080002f28:  962a              add             a2,a2,a0
0x0000000080002f2a:  a031              j               12              # 0x80002f36

----------------
IN: 
0x0000000080002f36:  00178713          addi            a4,a5,1
0x0000000080002f3a:  fef619e3          bne             a2,a5,-14       # 0x80002f2c

----------------
IN: 
0x0000000080002f2c:  fff74683          lbu             a3,-1(a4)
0x0000000080002f30:  00b68863          beq             a3,a1,16        # 0x80002f40

----------------
IN: 
0x0000000080002f34:  87ba              mv              a5,a4
0x0000000080002f36:  00178713          addi            a4,a5,1
0x0000000080002f3a:  fef619e3          bne             a2,a5,-14       # 0x80002f2c

----------------
IN: 
0x0000000080002f40:  6422              ld              s0,8(sp)
0x0000000080002f42:  853e              mv              a0,a5
0x0000000080002f44:  0141              addi            sp,sp,16
0x0000000080002f46:  8082              ret             

----------------
IN: 
0x0000000080006e98:  c555              beqz            a0,172          # 0x80006f44

----------------
IN: 
0x0000000080006e9a:  06098b63          beqz            s3,118          # 0x80006f10

----------------
IN: 
0x0000000080006e9e:  8d05              sub             a0,a0,s1
0x0000000080006ea0:  00a9a023          sw              a0,0(s3)
0x0000000080006ea4:  a0b5              j               108             # 0x80006f10

----------------
IN: 
0x0000000080006f10:  60a6              ld              ra,72(sp)
0x0000000080006f12:  6406              ld              s0,64(sp)
0x0000000080006f14:  8526              mv              a0,s1
0x0000000080006f16:  7942              ld              s2,48(sp)
0x0000000080006f18:  74e2              ld              s1,56(sp)
0x0000000080006f1a:  79a2              ld              s3,40(sp)
0x0000000080006f1c:  7a02              ld              s4,32(sp)
0x0000000080006f1e:  6ae2              ld              s5,24(sp)
0x0000000080006f20:  6b42              ld              s6,16(sp)
0x0000000080006f22:  6ba2              ld              s7,8(sp)
0x0000000080006f24:  6161              addi            sp,sp,80
0x0000000080006f26:  8082              ret             

----------------
IN: 
0x000000008000731a:  d955              beqz            a0,-76          # 0x800072ce

----------------
IN: 
0x000000008000731c:  fac42783          lw              a5,-84(s0)
0x0000000080007320:  fb4797e3          bne             a5,s4,-82       # 0x800072ce

----------------
IN: 
0x00000000800072ce:  85a6              mv              a1,s1
0x00000000800072d0:  854a              mv              a0,s2
0x00000000800072d2:  fabff0ef          jal             ra,-86          # 0x8000727c

----------------
IN: 
0x000000008000727c:  1101              addi            sp,sp,-32
0x000000008000727e:  e822              sd              s0,16(sp)
0x0000000080007280:  e426              sd              s1,8(sp)
0x0000000080007282:  ec06              sd              ra,24(sp)
0x0000000080007284:  1000              addi            s0,sp,32
0x0000000080007286:  84aa              mv              s1,a0
0x0000000080007288:  2c0010ef          jal             ra,4800         # 0x80008548

----------------
IN: 
0x000000008000728c:  00054663          bltz            a0,12           # 0x80007298

----------------
IN: 
0x0000000080007290:  85aa              mv              a1,a0
0x0000000080007292:  8526              mv              a0,s1
0x0000000080007294:  a99ff0ef          jal             ra,-1384        # 0x80006d2c

----------------
IN: 
0x0000000080007298:  60e2              ld              ra,24(sp)
0x000000008000729a:  6442              ld              s0,16(sp)
0x000000008000729c:  64a2              ld              s1,8(sp)
0x000000008000729e:  6105              addi            sp,sp,32
0x00000000800072a0:  8082              ret             

----------------
IN: 
0x00000000800072d6:  84aa              mv              s1,a0
0x00000000800072d8:  06054c63          bltz            a0,120          # 0x80007350

----------------
IN: 
0x0000000080006d5a:  03251163          bne             a0,s2,34        # 0x80006d7c

----------------
IN: 
0x0000000080006d7c:  fbc42483          lw              s1,-68(s0)
0x0000000080006d80:  fd5504e3          beq             a0,s5,-56       # 0x80006d48

----------------
IN: 
0x0000000080006d84:  557d              addi            a0,zero,-1
0x0000000080006d86:  b7c5              j               -32             # 0x80006d66

----------------
IN: 
0x0000000080007350:  4b81              mv              s7,zero
0x0000000080007352:  fe0982e3          beqz            s3,-28          # 0x80007336

----------------
IN: 
0x0000000080007356:  0099a023          sw              s1,0(s3)
0x000000008000735a:  bff1              j               -36             # 0x80007336

----------------
IN: 
0x0000000080007336:  60e6              ld              ra,88(sp)
0x0000000080007338:  6446              ld              s0,80(sp)
0x000000008000733a:  855e              mv              a0,s7
0x000000008000733c:  64a6              ld              s1,72(sp)
0x000000008000733e:  6906              ld              s2,64(sp)
0x0000000080007340:  79e2              ld              s3,56(sp)
0x0000000080007342:  7a42              ld              s4,48(sp)
0x0000000080007344:  7aa2              ld              s5,40(sp)
0x0000000080007346:  7b02              ld              s6,32(sp)
0x0000000080007348:  6be2              ld              s7,24(sp)
0x000000008000734a:  6125              addi            sp,sp,96
0x000000008000734c:  8082              ret             

----------------
IN: 
0x000000008000744c:  c925              beqz            a0,112          # 0x800074bc

----------------
IN: 
0x00000000800074bc:  4501              mv              a0,zero
0x00000000800074be:  bfc5              j               -16             # 0x800074ae

----------------
IN: 
0x00000000800074ae:  70a2              ld              ra,40(sp)
0x00000000800074b0:  7402              ld              s0,32(sp)
0x00000000800074b2:  64e2              ld              s1,24(sp)
0x00000000800074b4:  6145              addi            sp,sp,48
0x00000000800074b6:  8082              ret             

----------------
IN: 
0x0000000080007e4a:  cd19              beqz            a0,30           # 0x80007e68

----------------
IN: 
0x0000000080007e68:  fcc42503          lw              a0,-52(s0)
0x0000000080007e6c:  70e2              ld              ra,56(sp)
0x0000000080007e6e:  7442              ld              s0,48(sp)
0x0000000080007e70:  74a2              ld              s1,40(sp)
0x0000000080007e72:  7902              ld              s2,32(sp)
0x0000000080007e74:  69e2              ld              s3,24(sp)
0x0000000080007e76:  6121              addi            sp,sp,64
0x0000000080007e78:  8082              ret             

----------------
IN: 
0x0000000080007ed4:  87aa              mv              a5,a0
0x0000000080007ed6:  4601              mv              a2,zero
0x0000000080007ed8:  85a6              mv              a1,s1
0x0000000080007eda:  854a              mv              a0,s2
0x0000000080007edc:  fb47cee3          bgt             s4,a5,-68       # 0x80007e98

----------------
IN: 
0x0000000080007ee0:  f3e5              bnez            a5,-32          # 0x80007ec0

----------------
IN: 
0x0000000080007ec0:  6be000ef          jal             ra,1726         # 0x8000857e

----------------
IN: 
0x00000000800085d6:  fe0905e3          beqz            s2,-22          # 0x800085c0

----------------
IN: 
0x0000000080007ec4:  84aa              mv              s1,a0
0x0000000080007ec6:  00054e63          bltz            a0,28           # 0x80007ee2

----------------
IN: 
0x0000000080007324:  8652              mv              a2,s4
0x0000000080007326:  85d6              mv              a1,s5
0x0000000080007328:  babfb0ef          jal             ra,-17494       # 0x80002ed2

----------------
IN: 
0x0000000080002ed2:  1141              addi            sp,sp,-16
0x0000000080002ed4:  e422              sd              s0,8(sp)
0x0000000080002ed6:  0800              addi            s0,sp,16
0x0000000080002ed8:  c21d              beqz            a2,38           # 0x80002efe

----------------
IN: 
0x0000000080002eda:  00054783          lbu             a5,0(a0)
0x0000000080002ede:  0005c703          lbu             a4,0(a1)
0x0000000080002ee2:  02f71263          bne             a4,a5,36        # 0x80002f06

----------------
IN: 
0x0000000080002f06:  6422              ld              s0,8(sp)
0x0000000080002f08:  40e7853b          subw            a0,a5,a4
0x0000000080002f0c:  0141              addi            sp,sp,16
0x0000000080002f0e:  8082              ret             

----------------
IN: 
0x000000008000732c:  f14d              bnez            a0,-94          # 0x800072ce

----------------
IN: 
0x0000000080002ee6:  962a              add             a2,a2,a0
0x0000000080002ee8:  a039              j               14              # 0x80002ef6

----------------
IN: 
0x0000000080002ef6:  0505              addi            a0,a0,1
0x0000000080002ef8:  0585              addi            a1,a1,1
0x0000000080002efa:  fec518e3          bne             a0,a2,-16       # 0x80002eea

----------------
IN: 
0x0000000080002eea:  00054783          lbu             a5,0(a0)
0x0000000080002eee:  0005c703          lbu             a4,0(a1)
0x0000000080002ef2:  00e79a63          bne             a5,a4,20        # 0x80002f06

----------------
IN: 
0x0000000080002efe:  6422              ld              s0,8(sp)
0x0000000080002f00:  4501              mv              a0,zero
0x0000000080002f02:  0141              addi            sp,sp,16
0x0000000080002f04:  8082              ret             

----------------
IN: 
0x000000008000732e:  000b0463          beqz            s6,8            # 0x80007336

----------------
IN: 
0x0000000080007332:  009b2023          sw              s1,0(s6)
0x0000000080007336:  60e6              ld              ra,88(sp)
0x0000000080007338:  6446              ld              s0,80(sp)
0x000000008000733a:  855e              mv              a0,s7
0x000000008000733c:  64a6              ld              s1,72(sp)
0x000000008000733e:  6906              ld              s2,64(sp)
0x0000000080007340:  79e2              ld              s3,56(sp)
0x0000000080007342:  7a42              ld              s4,48(sp)
0x0000000080007344:  7aa2              ld              s5,40(sp)
0x0000000080007346:  7b02              ld              s6,32(sp)
0x0000000080007348:  6be2              ld              s7,24(sp)
0x000000008000734a:  6125              addi            sp,sp,96
0x000000008000734c:  8082              ret             

----------------
IN: 
0x000000008000744e:  0144c783          lbu             a5,20(s1)
0x0000000080007452:  0154c683          lbu             a3,21(s1)
0x0000000080007456:  0174c603          lbu             a2,23(s1)
0x000000008000745a:  0164c703          lbu             a4,22(s1)
0x000000008000745e:  0187979b          slliw           a5,a5,24
0x0000000080007462:  0106969b          slliw           a3,a3,16
0x0000000080007466:  8fd5              or              a5,a5,a3
0x0000000080007468:  0087171b          slliw           a4,a4,8
0x000000008000746c:  8fd1              or              a5,a5,a2
0x000000008000746e:  8fd9              or              a5,a5,a4
0x0000000080007470:  2781              sext.w          a5,a5
0x0000000080007472:  473d              addi            a4,zero,15
0x0000000080007474:  02f76c63          bgtu            a5,a4,56        # 0x800074ac

----------------
IN: 
0x00000000800074ac:  0531              addi            a0,a0,12
0x00000000800074ae:  70a2              ld              ra,40(sp)
0x00000000800074b0:  7402              ld              s0,32(sp)
0x00000000800074b2:  64e2              ld              s1,24(sp)
0x00000000800074b4:  6145              addi            sp,sp,48
0x00000000800074b6:  8082              ret             

----------------
IN: 
0x0000000080007e4c:  fcc42583          lw              a1,-52(s0)
0x0000000080007e50:  864e              mv              a2,s3
0x0000000080007e52:  d75ff0ef          jal             ra,-652         # 0x80007bc6

----------------
IN: 
0x0000000080007bc6:  7139              addi            sp,sp,-64
0x0000000080007bc8:  f822              sd              s0,48(sp)
0x0000000080007bca:  f426              sd              s1,40(sp)
0x0000000080007bcc:  f04a              sd              s2,32(sp)
0x0000000080007bce:  ec4e              sd              s3,24(sp)
0x0000000080007bd0:  e852              sd              s4,16(sp)
0x0000000080007bd2:  e456              sd              s5,8(sp)
0x0000000080007bd4:  fc06              sd              ra,56(sp)
0x0000000080007bd6:  0080              addi            s0,sp,64
0x0000000080007bd8:  892a              mv              s2,a0
0x0000000080007bda:  8532              mv              a0,a2
0x0000000080007bdc:  8a32              mv              s4,a2
0x0000000080007bde:  84ae              mv              s1,a1
0x0000000080007be0:  946fb0ef          jal             ra,-20154       # 0x80002d26

----------------
IN: 
0x0000000080007be4:  0005099b          sext.w          s3,a0
0x0000000080007be8:  00198a9b          addiw           s5,s3,1
0x0000000080007bec:  0334d063          ble             s3,s1,32        # 0x80007c0c

----------------
IN: 
0x0000000080007bf0:  a805              j               48              # 0x80007c20

----------------
IN: 
0x0000000080007c20:  4501              mv              a0,zero
0x0000000080007c22:  70e2              ld              ra,56(sp)
0x0000000080007c24:  7442              ld              s0,48(sp)
0x0000000080007c26:  74a2              ld              s1,40(sp)
0x0000000080007c28:  7902              ld              s2,32(sp)
0x0000000080007c2a:  69e2              ld              s3,24(sp)
0x0000000080007c2c:  6a42              ld              s4,16(sp)
0x0000000080007c2e:  6aa2              ld              s5,8(sp)
0x0000000080007c30:  6121              addi            sp,sp,64
0x0000000080007c32:  8082              ret             

----------------
IN: 
0x0000000080007e56:  70e2              ld              ra,56(sp)
0x0000000080007e58:  7442              ld              s0,48(sp)
0x0000000080007e5a:  74a2              ld              s1,40(sp)
0x0000000080007e5c:  7902              ld              s2,32(sp)
0x0000000080007e5e:  69e2              ld              s3,24(sp)
0x0000000080007e60:  00153513          seqz            a0,a0
0x0000000080007e64:  6121              addi            sp,sp,64
0x0000000080007e66:  8082              ret             

----------------
IN: 
0x0000000080007c0c:  85ca              mv              a1,s2
0x0000000080007c0e:  8656              mv              a2,s5
0x0000000080007c10:  8552              mv              a0,s4
0x0000000080007c12:  ac0fb0ef          jal             ra,-19776       # 0x80002ed2

----------------
IN: 
0x0000000080007c16:  8626              mv              a2,s1
0x0000000080007c18:  4581              mv              a1,zero
0x0000000080007c1a:  fd61              bnez            a0,-40          # 0x80007bf2

----------------
IN: 
0x0000000080007bf2:  854a              mv              a0,s2
0x0000000080007bf4:  b1cfb0ef          jal             ra,-19684       # 0x80002f10

----------------
IN: 
0x0000000080007bf8:  41250933          sub             s2,a0,s2
0x0000000080007bfc:  34fd              addiw           s1,s1,-1
0x0000000080007bfe:  412484bb          subw            s1,s1,s2
0x0000000080007c02:  cd19              beqz            a0,30           # 0x80007c20

----------------
IN: 
0x0000000080007c04:  00150913          addi            s2,a0,1
0x0000000080007c08:  0134cc63          bgt             s3,s1,24        # 0x80007c20

----------------
IN: 
0x00000000800072cc:  a051              j               132             # 0x80007350

----------------
IN: 
0x0000000080007c1c:  4505              addi            a0,zero,1
0x0000000080007c1e:  a011              j               4               # 0x80007c22

----------------
IN: 
0x0000000080007c22:  70e2              ld              ra,56(sp)
0x0000000080007c24:  7442              ld              s0,48(sp)
0x0000000080007c26:  74a2              ld              s1,40(sp)
0x0000000080007c28:  7902              ld              s2,32(sp)
0x0000000080007c2a:  69e2              ld              s3,24(sp)
0x0000000080007c2c:  6a42              ld              s4,16(sp)
0x0000000080007c2e:  6aa2              ld              s5,8(sp)
0x0000000080007c30:  6121              addi            sp,sp,64
0x0000000080007c32:  8082              ret             

----------------
IN: 
0x0000000080007ee2:  87a6              mv              a5,s1
0x0000000080007ee4:  bf55              j               -76             # 0x80007e98

----------------
IN: 
0x0000000080007e98:  70a2              ld              ra,40(sp)
0x0000000080007e9a:  7402              ld              s0,32(sp)
0x0000000080007e9c:  64e2              ld              s1,24(sp)
0x0000000080007e9e:  6942              ld              s2,16(sp)
0x0000000080007ea0:  69a2              ld              s3,8(sp)
0x0000000080007ea2:  6a02              ld              s4,0(sp)
0x0000000080007ea4:  853e              mv              a0,a5
0x0000000080007ea6:  6145              addi            sp,sp,48
0x0000000080007ea8:  8082              ret             

----------------
IN: 
0x000000008000616e:  85aa              mv              a1,a0
0x0000000080006170:  fdc40693          addi            a3,s0,-36
0x0000000080006174:  00003617          auipc           a2,12288        # 0x80009174
0x0000000080006178:  6fc60613          addi            a2,a2,1788
0x000000008000617c:  8526              mv              a0,s1
0x000000008000617e:  426010ef          jal             ra,5158         # 0x800075a4

----------------
IN: 
0x00000000800075a4:  7179              addi            sp,sp,-48
0x00000000800075a6:  f406              sd              ra,40(sp)
0x00000000800075a8:  f022              sd              s0,32(sp)
0x00000000800075aa:  ec26              sd              s1,24(sp)
0x00000000800075ac:  e84a              sd              s2,16(sp)
0x00000000800075ae:  e44e              sd              s3,8(sp)
0x00000000800075b0:  e052              sd              s4,0(sp)
0x00000000800075b2:  1800              addi            s0,sp,48
0x00000000800075b4:  892a              mv              s2,a0
0x00000000800075b6:  8532              mv              a0,a2
0x00000000800075b8:  8a36              mv              s4,a3
0x00000000800075ba:  84b2              mv              s1,a2
0x00000000800075bc:  89ae              mv              s3,a1
0x00000000800075be:  f68fb0ef          jal             ra,-18584       # 0x80002d26

----------------
IN: 
0x00000000800075c2:  8752              mv              a4,s4
0x00000000800075c4:  0005069b          sext.w          a3,a0
0x00000000800075c8:  8626              mv              a2,s1
0x00000000800075ca:  85ce              mv              a1,s3
0x00000000800075cc:  854a              mv              a0,s2
0x00000000800075ce:  e6bff0ef          jal             ra,-406         # 0x80007438

----------------
IN: 
0x00000000800075d2:  70a2              ld              ra,40(sp)
0x00000000800075d4:  7402              ld              s0,32(sp)
0x00000000800075d6:  64e2              ld              s1,24(sp)
0x00000000800075d8:  6942              ld              s2,16(sp)
0x00000000800075da:  69a2              ld              s3,8(sp)
0x00000000800075dc:  6a02              ld              s4,0(sp)
0x00000000800075de:  6145              addi            sp,sp,48
0x00000000800075e0:  8082              ret             

----------------
IN: 
0x0000000080006182:  c125              beqz            a0,96           # 0x800061e2

----------------
IN: 
0x0000000080006184:  fdc42783          lw              a5,-36(s0)
0x0000000080006188:  4705              addi            a4,zero,1
0x000000008000618a:  8789              srai            a5,a5,2
0x000000008000618c:  fcf42e23          sw              a5,-36(s0)
0x0000000080006190:  04f75963          ble             a5,a4,82        # 0x800061e2

----------------
IN: 
0x0000000080006194:  0511              addi            a0,a0,4
0x0000000080006196:  4601              mv              a2,zero
0x0000000080006198:  482d              addi            a6,zero,11
0x000000008000619a:  58fd              addi            a7,zero,-1
0x000000008000619c:  411c              lw              a5,0(a0)
0x000000008000619e:  2605              addiw           a2,a2,1
0x00000000800061a0:  0087d693          srli            a3,a5,8
0x00000000800061a4:  0187971b          slliw           a4,a5,24
0x00000000800061a8:  0187d59b          srliw           a1,a5,24
0x00000000800061ac:  0ff6f693          andi            a3,a3,255
0x00000000800061b0:  83c1              srli            a5,a5,16
0x00000000800061b2:  8f4d              or              a4,a4,a1
0x00000000800061b4:  0106969b          slliw           a3,a3,16
0x00000000800061b8:  0ff7f793          andi            a5,a5,255
0x00000000800061bc:  8f55              or              a4,a4,a3
0x00000000800061be:  0087979b          slliw           a5,a5,8
0x00000000800061c2:  8fd9              or              a5,a5,a4
0x00000000800061c4:  2781              sext.w          a5,a5
0x00000000800061c6:  01079463          bne             a5,a6,8         # 0x800061ce

----------------
IN: 
0x00000000800061ca:  01152023          sw              a7,0(a0)
0x00000000800061ce:  fdc42703          lw              a4,-36(s0)
0x00000000800061d2:  0521              addi            a0,a0,8
0x00000000800061d4:  01f7579b          srliw           a5,a4,31
0x00000000800061d8:  9fb9              addw            a5,a5,a4
0x00000000800061da:  4017d79b          sraiw           a5,a5,1
0x00000000800061de:  faf64fe3          bgt             a5,a2,-66       # 0x8000619c

----------------
IN: 
0x000000008000619c:  411c              lw              a5,0(a0)
0x000000008000619e:  2605              addiw           a2,a2,1
0x00000000800061a0:  0087d693          srli            a3,a5,8
0x00000000800061a4:  0187971b          slliw           a4,a5,24
0x00000000800061a8:  0187d59b          srliw           a1,a5,24
0x00000000800061ac:  0ff6f693          andi            a3,a3,255
0x00000000800061b0:  83c1              srli            a5,a5,16
0x00000000800061b2:  8f4d              or              a4,a4,a1
0x00000000800061b4:  0106969b          slliw           a3,a3,16
0x00000000800061b8:  0ff7f793          andi            a5,a5,255
0x00000000800061bc:  8f55              or              a4,a4,a3
0x00000000800061be:  0087979b          slliw           a5,a5,8
0x00000000800061c2:  8fd9              or              a5,a5,a4
0x00000000800061c4:  2781              sext.w          a5,a5
0x00000000800061c6:  01079463          bne             a5,a6,8         # 0x800061ce

----------------
IN: 
0x00000000800061ce:  fdc42703          lw              a4,-36(s0)
0x00000000800061d2:  0521              addi            a0,a0,8
0x00000000800061d4:  01f7579b          srliw           a5,a4,31
0x00000000800061d8:  9fb9              addw            a5,a5,a4
0x00000000800061da:  4017d79b          sraiw           a5,a5,1
0x00000000800061de:  faf64fe3          bgt             a5,a2,-66       # 0x8000619c

----------------
IN: 
0x00000000800061e2:  70a2              ld              ra,40(sp)
0x00000000800061e4:  7402              ld              s0,32(sp)
0x00000000800061e6:  64e2              ld              s1,24(sp)
0x00000000800061e8:  6145              addi            sp,sp,48
0x00000000800061ea:  8082              ret             

----------------
IN: 
0x00000000800030ac:  60a2              ld              ra,8(sp)
0x00000000800030ae:  6402              ld              s0,0(sp)
0x00000000800030b0:  4501              mv              a0,zero
0x00000000800030b2:  0141              addi            sp,sp,16
0x00000000800030b4:  8082              ret             

----------------
IN: 
0x0000000080001394:  60a2              ld              ra,8(sp)
0x0000000080001396:  6402              ld              s0,0(sp)
0x0000000080001398:  0141              addi            sp,sp,16
0x000000008000139a:  8082              ret             

----------------
IN: 
0x0000000080000908:  ee051ae3          bnez            a0,-268         # 0x800007fc

----------------
IN: 
0x000000008000090c:  0484c783          lbu             a5,72(s1)
0x0000000080000910:  8b85              andi            a5,a5,1
0x0000000080000912:  10078463          beqz            a5,264          # 0x80000a1a

----------------
IN: 
0x0000000080000a1a:  0314c703          lbu             a4,49(s1)
0x0000000080000a1e:  0304c503          lbu             a0,48(s1)
0x0000000080000a22:  0324c583          lbu             a1,50(s1)
0x0000000080000a26:  0334c603          lbu             a2,51(s1)
0x0000000080000a2a:  0344c683          lbu             a3,52(s1)
0x0000000080000a2e:  0722              slli            a4,a4,8
0x0000000080000a30:  8f49              or              a4,a4,a0
0x0000000080000a32:  0354ca03          lbu             s4,53(s1)
0x0000000080000a36:  05c2              slli            a1,a1,16
0x0000000080000a38:  8dd9              or              a1,a1,a4
0x0000000080000a3a:  0662              slli            a2,a2,24
0x0000000080000a3c:  0364c703          lbu             a4,54(s1)
0x0000000080000a40:  8e4d              or              a2,a2,a1
0x0000000080000a42:  1682              slli            a3,a3,32
0x0000000080000a44:  0374c583          lbu             a1,55(s1)
0x0000000080000a48:  8ed1              or              a3,a3,a2
0x0000000080000a4a:  1a22              slli            s4,s4,40
0x0000000080000a4c:  00da6a33          or              s4,s4,a3
0x0000000080000a50:  1742              slli            a4,a4,48
0x0000000080000a52:  01476733          or              a4,a4,s4
0x0000000080000a56:  03859a13          slli            s4,a1,56
0x0000000080000a5a:  00ea6a33          or              s4,s4,a4
0x0000000080000a5e:  301025f3          csrrs           a1,misa,zero

----------------
IN: 
0x0000000080000a62:  4605              addi            a2,zero,1
0x0000000080000a64:  f9040813          addi            a6,s0,-112
0x0000000080000a68:  46e9              addi            a3,zero,26
0x0000000080000a6a:  00f6173b          sllw            a4,a2,a5
0x0000000080000a6e:  8f6d              and             a4,a4,a1
0x0000000080000a70:  c711              beqz            a4,12           # 0x80000a7c

----------------
IN: 
0x0000000080000a72:  0417871b          addiw           a4,a5,65
0x0000000080000a76:  00e80023          sb              a4,0(a6)
0x0000000080000a7a:  0805              addi            a6,a6,1
0x0000000080000a7c:  0785              addi            a5,a5,1
0x0000000080000a7e:  fed796e3          bne             a5,a3,-20       # 0x80000a6a

----------------
IN: 
0x0000000080000a6a:  00f6173b          sllw            a4,a2,a5
0x0000000080000a6e:  8f6d              and             a4,a4,a1
0x0000000080000a70:  c711              beqz            a4,12           # 0x80000a7c

----------------
IN: 
0x0000000080000a7c:  0785              addi            a5,a5,1
0x0000000080000a7e:  fed796e3          bne             a5,a3,-20       # 0x80000a6a

----------------
IN: 
0x0000000080000a82:  00008717          auipc           a4,32768        # 0x80008a82
0x0000000080000a86:  57e70713          addi            a4,a4,1406
0x0000000080000a8a:  00008697          auipc           a3,32768        # 0x80008a8a
0x0000000080000a8e:  58668693          addi            a3,a3,1414
0x0000000080000a92:  4611              addi            a2,zero,4
0x0000000080000a94:  4581              mv              a1,zero
0x0000000080000a96:  00008517          auipc           a0,32768        # 0x80008a96
0x0000000080000a9a:  58a50513          addi            a0,a0,1418
0x0000000080000a9e:  00080023          sb              zero,0(a6)
0x0000000080000aa2:  5c2030ef          jal             ra,13762        # 0x80004064

----------------
IN: 
0x0000000080004064:  7159              addi            sp,sp,-112
0x0000000080004066:  f406              sd              ra,40(sp)
0x0000000080004068:  f022              sd              s0,32(sp)
0x000000008000406a:  ec26              sd              s1,24(sp)
0x000000008000406c:  1800              addi            s0,sp,48
0x000000008000406e:  84aa              mv              s1,a0
0x0000000080004070:  00007517          auipc           a0,28672        # 0x8000b070
0x0000000080004074:  fb850513          addi            a0,a0,-72
0x0000000080004078:  f018              sd              a4,32(s0)
0x000000008000407a:  03043823          sd              a6,48(s0)
0x000000008000407e:  03143c23          sd              a7,56(s0)
0x0000000080004082:  f41c              sd              a5,40(s0)
0x0000000080004084:  e40c              sd              a1,8(s0)
0x0000000080004086:  e810              sd              a2,16(s0)
0x0000000080004088:  ec14              sd              a3,24(s0)
0x000000008000408a:  9baff0ef          jal             ra,-3654        # 0x80003244

----------------
IN: 
0x000000008000408e:  00840793          addi            a5,s0,8
0x0000000080004092:  8626              mv              a2,s1
0x0000000080004094:  86be              mv              a3,a5
0x0000000080004096:  4581              mv              a1,zero
0x0000000080004098:  4501              mv              a0,zero
0x000000008000409a:  fcf43c23          sd              a5,-40(s0)
0x000000008000409e:  9fdff0ef          jal             ra,-1540        # 0x80003a9a

----------------
IN: 
0x0000000080003a9a:  7175              addi            sp,sp,-144
0x0000000080003a9c:  e122              sd              s0,128(sp)
0x0000000080003a9e:  f0d2              sd              s4,96(sp)
0x0000000080003aa0:  e506              sd              ra,136(sp)
0x0000000080003aa2:  fca6              sd              s1,120(sp)
0x0000000080003aa4:  f8ca              sd              s2,112(sp)
0x0000000080003aa6:  f4ce              sd              s3,104(sp)
0x0000000080003aa8:  ecd6              sd              s5,88(sp)
0x0000000080003aaa:  e8da              sd              s6,80(sp)
0x0000000080003aac:  e4de              sd              s7,72(sp)
0x0000000080003aae:  e0e2              sd              s8,64(sp)
0x0000000080003ab0:  fc66              sd              s9,56(sp)
0x0000000080003ab2:  f86a              sd              s10,48(sp)
0x0000000080003ab4:  f46e              sd              s11,40(sp)
0x0000000080003ab6:  0900              addi            s0,sp,144
0x0000000080003ab8:  00064783          lbu             a5,0(a2)
0x0000000080003abc:  8a2a              mv              s4,a0
0x0000000080003abe:  2c078763          beqz            a5,718          # 0x80003d8c

----------------
IN: 
0x0000000080003ac2:  8c32              mv              s8,a2
0x0000000080003ac4:  8aae              mv              s5,a1
0x0000000080003ac6:  89b6              mv              s3,a3
0x0000000080003ac8:  4c81              mv              s9,zero
0x0000000080003aca:  4b01              mv              s6,zero
0x0000000080003acc:  02500913          addi            s2,zero,37
0x0000000080003ad0:  03000b93          addi            s7,zero,48
0x0000000080003ad4:  4da5              addi            s11,zero,9
0x0000000080003ad6:  001c0493          addi            s1,s8,1
0x0000000080003ada:  13279363          bne             a5,s2,294       # 0x80003c00

----------------
IN: 
0x0000000080003c00:  87a6              mv              a5,s1
0x0000000080003c02:  000c4603          lbu             a2,0(s8)
0x0000000080003c06:  84e2              mv              s1,s8
0x0000000080003c08:  8c3e              mv              s8,a5
0x0000000080003c0a:  85d6              mv              a1,s5
0x0000000080003c0c:  8552              mv              a0,s4
0x0000000080003c0e:  c3dff0ef          jal             ra,-964         # 0x8000384a

----------------
IN: 
0x000000008000384a:  c515              beqz            a0,44           # 0x80003876

----------------
IN: 
0x0000000080003876:  1141              addi            sp,sp,-16
0x0000000080003878:  e022              sd              s0,0(sp)
0x000000008000387a:  e406              sd              ra,8(sp)
0x000000008000387c:  0800              addi            s0,sp,16
0x000000008000387e:  8532              mv              a0,a2
0x0000000080003880:  e99ff0ef          jal             ra,-360         # 0x80003718

----------------
IN: 
0x0000000080003718:  1101              addi            sp,sp,-32
0x000000008000371a:  e822              sd              s0,16(sp)
0x000000008000371c:  e426              sd              s1,8(sp)
0x000000008000371e:  e04a              sd              s2,0(sp)
0x0000000080003720:  ec06              sd              ra,24(sp)
0x0000000080003722:  1000              addi            s0,sp,32
0x0000000080003724:  00008917          auipc           s2,32768        # 0x8000b724
0x0000000080003728:  90c90913          addi            s2,s2,-1780
0x000000008000372c:  4729              addi            a4,zero,10
0x000000008000372e:  84aa              mv              s1,a0
0x0000000080003730:  00093783          ld              a5,0(s2)
0x0000000080003734:  08e50863          beq             a0,a4,144       # 0x800037c4

----------------
IN: 
0x00000000800037c4:  dbf5              beqz            a5,-12          # 0x800037b8

----------------
IN: 
0x00000000800037c6:  0617c703          lbu             a4,97(a5)
0x00000000800037ca:  0607c683          lbu             a3,96(a5)
0x00000000800037ce:  0627c503          lbu             a0,98(a5)
0x00000000800037d2:  0637c583          lbu             a1,99(a5)
0x00000000800037d6:  0647c603          lbu             a2,100(a5)
0x00000000800037da:  0722              slli            a4,a4,8
0x00000000800037dc:  8f55              or              a4,a4,a3
0x00000000800037de:  0542              slli            a0,a0,16
0x00000000800037e0:  0657c683          lbu             a3,101(a5)
0x00000000800037e4:  8d59              or              a0,a0,a4
0x00000000800037e6:  05e2              slli            a1,a1,24
0x00000000800037e8:  0667c703          lbu             a4,102(a5)
0x00000000800037ec:  8dc9              or              a1,a1,a0
0x00000000800037ee:  1602              slli            a2,a2,32
0x00000000800037f0:  0677c783          lbu             a5,103(a5)
0x00000000800037f4:  8e4d              or              a2,a2,a1
0x00000000800037f6:  16a2              slli            a3,a3,40
0x00000000800037f8:  8ed1              or              a3,a3,a2
0x00000000800037fa:  1742              slli            a4,a4,48
0x00000000800037fc:  8f55              or              a4,a4,a3
0x00000000800037fe:  17e2              slli            a5,a5,56
0x0000000080003800:  8fd9              or              a5,a5,a4
0x0000000080003802:  0217c703          lbu             a4,33(a5)
0x0000000080003806:  0207c683          lbu             a3,32(a5)
0x000000008000380a:  0227c503          lbu             a0,34(a5)
0x000000008000380e:  0237c583          lbu             a1,35(a5)
0x0000000080003812:  0247c603          lbu             a2,36(a5)
0x0000000080003816:  0722              slli            a4,a4,8
0x0000000080003818:  8f55              or              a4,a4,a3
0x000000008000381a:  0542              slli            a0,a0,16
0x000000008000381c:  0257c683          lbu             a3,37(a5)
0x0000000080003820:  8d59              or              a0,a0,a4
0x0000000080003822:  05e2              slli            a1,a1,24
0x0000000080003824:  0267c703          lbu             a4,38(a5)
0x0000000080003828:  8dc9              or              a1,a1,a0
0x000000008000382a:  1602              slli            a2,a2,32
0x000000008000382c:  0277c783          lbu             a5,39(a5)
0x0000000080003830:  8e4d              or              a2,a2,a1
0x0000000080003832:  16a2              slli            a3,a3,40
0x0000000080003834:  8ed1              or              a3,a3,a2
0x0000000080003836:  1742              slli            a4,a4,48
0x0000000080003838:  8f55              or              a4,a4,a3
0x000000008000383a:  17e2              slli            a5,a5,56
0x000000008000383c:  8fd9              or              a5,a5,a4
0x000000008000383e:  dfad              beqz            a5,-134         # 0x800037b8

----------------
IN: 
0x0000000080003840:  4535              addi            a0,zero,13
0x0000000080003842:  9782              jalr            ra,a5,0

----------------
IN: 
0x0000000080006018:  1101              addi            sp,sp,-32
0x000000008000601a:  e822              sd              s0,16(sp)
0x000000008000601c:  e426              sd              s1,8(sp)
0x000000008000601e:  ec06              sd              ra,24(sp)
0x0000000080006020:  1000              addi            s0,sp,32
0x0000000080006022:  84aa              mv              s1,a0
0x0000000080006024:  4515              addi            a0,zero,5
0x0000000080006026:  f07ff0ef          jal             ra,-250         # 0x80005f2c

----------------
IN: 
0x000000008000602a:  02057513          andi            a0,a0,32
0x000000008000602e:  d97d              beqz            a0,-10          # 0x80006024

----------------
IN: 
0x0000000080006030:  85a6              mv              a1,s1
0x0000000080006032:  4501              mv              a0,zero
0x0000000080006034:  f6bff0ef          jal             ra,-150         # 0x80005f9e

----------------
IN: 
0x0000000080006038:  60e2              ld              ra,24(sp)
0x000000008000603a:  6442              ld              s0,16(sp)
0x000000008000603c:  64a2              ld              s1,8(sp)
0x000000008000603e:  6105              addi            sp,sp,32
0x0000000080006040:  8082              ret             

----------------
IN: 
0x0000000080003844:  00093783          ld              a5,0(s2)
0x0000000080003848:  bdc5              j               -272            # 0x80003738

----------------
IN: 
0x0000000080003738:  c3c1              beqz            a5,128          # 0x800037b8

----------------
IN: 
0x000000008000373a:  0617c703          lbu             a4,97(a5)
0x000000008000373e:  0607c683          lbu             a3,96(a5)
0x0000000080003742:  0627c503          lbu             a0,98(a5)
0x0000000080003746:  0637c583          lbu             a1,99(a5)
0x000000008000374a:  0647c603          lbu             a2,100(a5)
0x000000008000374e:  0722              slli            a4,a4,8
0x0000000080003750:  8f55              or              a4,a4,a3
0x0000000080003752:  0542              slli            a0,a0,16
0x0000000080003754:  0657c683          lbu             a3,101(a5)
0x0000000080003758:  8d59              or              a0,a0,a4
0x000000008000375a:  05e2              slli            a1,a1,24
0x000000008000375c:  0667c703          lbu             a4,102(a5)
0x0000000080003760:  8dc9              or              a1,a1,a0
0x0000000080003762:  1602              slli            a2,a2,32
0x0000000080003764:  0677c783          lbu             a5,103(a5)
0x0000000080003768:  8e4d              or              a2,a2,a1
0x000000008000376a:  16a2              slli            a3,a3,40
0x000000008000376c:  8ed1              or              a3,a3,a2
0x000000008000376e:  1742              slli            a4,a4,48
0x0000000080003770:  8f55              or              a4,a4,a3
0x0000000080003772:  17e2              slli            a5,a5,56
0x0000000080003774:  8fd9              or              a5,a5,a4
0x0000000080003776:  0217c703          lbu             a4,33(a5)
0x000000008000377a:  0207c683          lbu             a3,32(a5)
0x000000008000377e:  0227c503          lbu             a0,34(a5)
0x0000000080003782:  0237c583          lbu             a1,35(a5)
0x0000000080003786:  0247c603          lbu             a2,36(a5)
0x000000008000378a:  0722              slli            a4,a4,8
0x000000008000378c:  8f55              or              a4,a4,a3
0x000000008000378e:  0542              slli            a0,a0,16
0x0000000080003790:  0257c683          lbu             a3,37(a5)
0x0000000080003794:  8d59              or              a0,a0,a4
0x0000000080003796:  05e2              slli            a1,a1,24
0x0000000080003798:  0267c703          lbu             a4,38(a5)
0x000000008000379c:  8dc9              or              a1,a1,a0
0x000000008000379e:  1602              slli            a2,a2,32
0x00000000800037a0:  0277c783          lbu             a5,39(a5)
0x00000000800037a4:  8e4d              or              a2,a2,a1
0x00000000800037a6:  16a2              slli            a3,a3,40
0x00000000800037a8:  8ed1              or              a3,a3,a2
0x00000000800037aa:  1742              slli            a4,a4,48
0x00000000800037ac:  8f55              or              a4,a4,a3
0x00000000800037ae:  17e2              slli            a5,a5,56
0x00000000800037b0:  8fd9              or              a5,a5,a4
0x00000000800037b2:  c399              beqz            a5,6            # 0x800037b8

----------------
IN: 
0x00000000800037b4:  8526              mv              a0,s1
0x00000000800037b6:  9782              jalr            ra,a5,0

----------------
IN: 
0x00000000800037b8:  60e2              ld              ra,24(sp)
0x00000000800037ba:  6442              ld              s0,16(sp)
0x00000000800037bc:  64a2              ld              s1,8(sp)
0x00000000800037be:  6902              ld              s2,0(sp)
0x00000000800037c0:  6105              addi            sp,sp,32
0x00000000800037c2:  8082              ret             

----------------
IN: 
0x0000000080003884:  60a2              ld              ra,8(sp)
0x0000000080003886:  6402              ld              s0,0(sp)
0x0000000080003888:  0141              addi            sp,sp,16
0x000000008000388a:  8082              ret             

----------------
IN: 
0x0000000080003c12:  2c85              addiw           s9,s9,1
0x0000000080003c14:  0014c783          lbu             a5,1(s1)
0x0000000080003c18:  ea079fe3          bnez            a5,-322         # 0x80003ad6

----------------
IN: 
0x0000000080003ad6:  001c0493          addi            s1,s8,1
0x0000000080003ada:  13279363          bne             a5,s2,294       # 0x80003c00

----------------
IN: 
0x0000000080003ade:  001c4603          lbu             a2,1(s8)
0x0000000080003ae2:  c27d              beqz            a2,230          # 0x80003bc8

----------------
IN: 
0x0000000080003ae4:  13260d63          beq             a2,s2,314       # 0x80003c1e

----------------
IN: 
0x0000000080003ae8:  02d00793          addi            a5,zero,45
0x0000000080003aec:  4d01              mv              s10,zero
0x0000000080003aee:  00f61763          bne             a2,a5,14        # 0x80003afc

----------------
IN: 
0x0000000080003afc:  02300793          addi            a5,zero,35
0x0000000080003b00:  0ef60a63          beq             a2,a5,244       # 0x80003bf4

----------------
IN: 
0x0000000080003b04:  01761963          bne             a2,s7,18        # 0x80003b16

----------------
IN: 
0x0000000080003b16:  fd06071b          addiw           a4,a2,-48
0x0000000080003b1a:  0ff77793          andi            a5,a4,255
0x0000000080003b1e:  4e81              mv              t4,zero
0x0000000080003b20:  02fde363          bgtu            a5,s11,38       # 0x80003b46

----------------
IN: 
0x0000000080003b46:  07300793          addi            a5,zero,115
0x0000000080003b4a:  0ef60f63          beq             a2,a5,254       # 0x80003c48

----------------
IN: 
0x0000000080003b4e:  06400793          addi            a5,zero,100
0x0000000080003b52:  0cf60863          beq             a2,a5,208       # 0x80003c22

----------------
IN: 
0x0000000080003c22:  0009a603          lw              a2,0(s3)
0x0000000080003c26:  03000893          addi            a7,zero,48
0x0000000080003c2a:  886a              mv              a6,s10
0x0000000080003c2c:  87f6              mv              a5,t4
0x0000000080003c2e:  4705              addi            a4,zero,1
0x0000000080003c30:  46a9              addi            a3,zero,10
0x0000000080003c32:  85d6              mv              a1,s5
0x0000000080003c34:  8552              mv              a0,s4
0x0000000080003c36:  d45ff0ef          jal             ra,-700         # 0x8000397a

----------------
IN: 
0x000000008000397a:  7119              addi            sp,sp,-128
0x000000008000397c:  f8a2              sd              s0,112(sp)
0x000000008000397e:  ecce              sd              s3,88(sp)
0x0000000080003980:  e8d2              sd              s4,80(sp)
0x0000000080003982:  fc86              sd              ra,120(sp)
0x0000000080003984:  f4a6              sd              s1,104(sp)
0x0000000080003986:  f0ca              sd              s2,96(sp)
0x0000000080003988:  0100              addi            s0,sp,128
0x000000008000398a:  00487313          andi            t1,a6,4
0x000000008000398e:  8a2e              mv              s4,a1
0x0000000080003990:  89aa              mv              s3,a0
0x0000000080003992:  85b2              mv              a1,a2
0x0000000080003994:  2301              sext.w          t1,t1
0x0000000080003996:  c709              beqz            a4,10           # 0x800039a0

----------------
IN: 
0x0000000080003998:  893a              mv              s2,a4
0x000000008000399a:  4729              addi            a4,zero,10
0x000000008000399c:  0ae68f63          beq             a3,a4,190       # 0x80003a5a

----------------
IN: 
0x0000000080003a5a:  f40653e3          bgez            a2,-186         # 0x800039a0

----------------
IN: 
0x00000000800039a0:  fc0407a3          sb              zero,-49(s0)
0x00000000800039a4:  ea1d              bnez            a2,54           # 0x800039da

----------------
IN: 
0x00000000800039a6:  03000713          addi            a4,zero,48
0x00000000800039aa:  fce40723          sb              a4,-50(s0)
0x00000000800039ae:  4901              mv              s2,zero
0x00000000800039b0:  fce40493          addi            s1,s0,-50
0x00000000800039b4:  04031b63          bnez            t1,86           # 0x80003a0a

----------------
IN: 
0x00000000800039b8:  8626              mv              a2,s1
0x00000000800039ba:  85d2              mv              a1,s4
0x00000000800039bc:  854e              mv              a0,s3
0x00000000800039be:  8742              mv              a4,a6
0x00000000800039c0:  86be              mv              a3,a5
0x00000000800039c2:  ecbff0ef          jal             ra,-310         # 0x8000388c

----------------
IN: 
0x000000008000388c:  715d              addi            sp,sp,-80
0x000000008000388e:  e0a2              sd              s0,64(sp)
0x0000000080003890:  fc26              sd              s1,56(sp)
0x0000000080003892:  f84a              sd              s2,48(sp)
0x0000000080003894:  f052              sd              s4,32(sp)
0x0000000080003896:  ec56              sd              s5,24(sp)
0x0000000080003898:  e486              sd              ra,72(sp)
0x000000008000389a:  f44e              sd              s3,40(sp)
0x000000008000389c:  e85a              sd              s6,16(sp)
0x000000008000389e:  e45e              sd              s7,8(sp)
0x00000000800038a0:  0880              addi            s0,sp,80
0x00000000800038a2:  8932              mv              s2,a2
0x00000000800038a4:  84b6              mv              s1,a3
0x00000000800038a6:  8a2a              mv              s4,a0
0x00000000800038a8:  8aae              mv              s5,a1
0x00000000800038aa:  00064603          lbu             a2,0(a2)
0x00000000800038ae:  0ad05263          blez            a3,164          # 0x80003952

----------------
IN: 
0x0000000080003952:  02000b93          addi            s7,zero,32
0x0000000080003956:  4981              mv              s3,zero
0x0000000080003958:  b77d              j               -82             # 0x80003906

----------------
IN: 
0x0000000080003906:  ca15              beqz            a2,52           # 0x8000393a

----------------
IN: 
0x0000000080003908:  412989bb          subw            s3,s3,s2
0x000000008000390c:  2985              addiw           s3,s3,1
0x000000008000390e:  85d6              mv              a1,s5
0x0000000080003910:  8552              mv              a0,s4
0x0000000080003912:  01298b3b          addw            s6,s3,s2
0x0000000080003916:  f35ff0ef          jal             ra,-204         # 0x8000384a

----------------
IN: 
0x000000008000391a:  0905              addi            s2,s2,1
0x000000008000391c:  00094603          lbu             a2,0(s2)
0x0000000080003920:  f67d              bnez            a2,-18          # 0x8000390e

----------------
IN: 
0x0000000080003922:  04905a63          blez            s1,84           # 0x80003976

----------------
IN: 
0x0000000080003976:  89da              mv              s3,s6
0x0000000080003978:  b7c9              j               -62             # 0x8000393a

----------------
IN: 
0x000000008000393a:  60a6              ld              ra,72(sp)
0x000000008000393c:  6406              ld              s0,64(sp)
0x000000008000393e:  854e              mv              a0,s3
0x0000000080003940:  74e2              ld              s1,56(sp)
0x0000000080003942:  7942              ld              s2,48(sp)
0x0000000080003944:  79a2              ld              s3,40(sp)
0x0000000080003946:  7a02              ld              s4,32(sp)
0x0000000080003948:  6ae2              ld              s5,24(sp)
0x000000008000394a:  6b42              ld              s6,16(sp)
0x000000008000394c:  6ba2              ld              s7,8(sp)
0x000000008000394e:  6161              addi            sp,sp,80
0x0000000080003950:  8082              ret             

----------------
IN: 
0x00000000800039c6:  70e6              ld              ra,120(sp)
0x00000000800039c8:  7446              ld              s0,112(sp)
0x00000000800039ca:  0125053b          addw            a0,a0,s2
0x00000000800039ce:  74a6              ld              s1,104(sp)
0x00000000800039d0:  7906              ld              s2,96(sp)
0x00000000800039d2:  69e6              ld              s3,88(sp)
0x00000000800039d4:  6a46              ld              s4,80(sp)
0x00000000800039d6:  6109              addi            sp,sp,128
0x00000000800039d8:  8082              ret             

----------------
IN: 
0x0000000080003c3a:  09a1              addi            s3,s3,8
0x0000000080003c3c:  01950cbb          addw            s9,a0,s9
0x0000000080003c40:  2b11              addiw           s6,s6,4
0x0000000080003c42:  00148c13          addi            s8,s1,1
0x0000000080003c46:  b7f9              j               -50             # 0x80003c14

----------------
IN: 
0x0000000080003c14:  0014c783          lbu             a5,1(s1)
0x0000000080003c18:  ea079fe3          bnez            a5,-322         # 0x80003ad6

----------------
IN: 
0x00000000800039da:  4901              mv              s2,zero
0x00000000800039dc:  fcf40493          addi            s1,s0,-49
0x00000000800039e0:  4525              addi            a0,zero,9
0x00000000800039e2:  fc688e1b          addiw           t3,a7,-58
0x00000000800039e6:  a011              j               4               # 0x800039ea

----------------
IN: 
0x00000000800039ea:  02d5f733          remu            a4,a1,a3
0x00000000800039ee:  14fd              addi            s1,s1,-1
0x00000000800039f0:  02d5d633          divu            a2,a1,a3
0x00000000800039f4:  00e57363          bleu            a4,a0,6         # 0x800039fa

----------------
IN: 
0x00000000800039fa:  0307071b          addiw           a4,a4,48
0x00000000800039fe:  00e48023          sb              a4,0(s1)
0x0000000080003a02:  fed5f3e3          bleu            a3,a1,-26       # 0x800039e8

----------------
IN: 
0x0000000080003a06:  00030c63          beqz            t1,24           # 0x80003a1e

----------------
IN: 
0x0000000080003a1e:  f8090de3          beqz            s2,-102         # 0x800039b8

----------------
IN: 
0x0000000080003c48:  0009b603          ld              a2,0(s3)
0x0000000080003c4c:  2b21              addiw           s6,s6,8
0x0000000080003c4e:  09a1              addi            s3,s3,8
0x0000000080003c50:  c641              beqz            a2,136          # 0x80003cd8

----------------
IN: 
0x0000000080003c52:  876a              mv              a4,s10
0x0000000080003c54:  86f6              mv              a3,t4
0x0000000080003c56:  85d6              mv              a1,s5
0x0000000080003c58:  8552              mv              a0,s4
0x0000000080003c5a:  c33ff0ef          jal             ra,-974         # 0x8000388c

----------------
IN: 
0x000000008000390e:  85d6              mv              a1,s5
0x0000000080003910:  8552              mv              a0,s4
0x0000000080003912:  01298b3b          addw            s6,s3,s2
0x0000000080003916:  f35ff0ef          jal             ra,-204         # 0x8000384a

----------------
IN: 
0x0000000080003c5e:  01950cbb          addw            s9,a0,s9
0x0000000080003c62:  00148c13          addi            s8,s1,1
0x0000000080003c66:  b77d              j               -82             # 0x80003c14

----------------
IN: 
0x0000000080003c1c:  b775              j               -84             # 0x80003bc8

----------------
IN: 
0x0000000080003bc8:  000a0663          beqz            s4,12           # 0x80003bd4

----------------
IN: 
0x0000000080003bd4:  60aa              ld              ra,136(sp)
0x0000000080003bd6:  640a              ld              s0,128(sp)
0x0000000080003bd8:  8566              mv              a0,s9
0x0000000080003bda:  74e6              ld              s1,120(sp)
0x0000000080003bdc:  7946              ld              s2,112(sp)
0x0000000080003bde:  79a6              ld              s3,104(sp)
0x0000000080003be0:  7a06              ld              s4,96(sp)
0x0000000080003be2:  6ae6              ld              s5,88(sp)
0x0000000080003be4:  6b46              ld              s6,80(sp)
0x0000000080003be6:  6ba6              ld              s7,72(sp)
0x0000000080003be8:  6c06              ld              s8,64(sp)
0x0000000080003bea:  7ce2              ld              s9,56(sp)
0x0000000080003bec:  7d42              ld              s10,48(sp)
0x0000000080003bee:  7da2              ld              s11,40(sp)
0x0000000080003bf0:  6149              addi            sp,sp,144
0x0000000080003bf2:  8082              ret             

----------------
IN: 
0x00000000800040a2:  84aa              mv              s1,a0
0x00000000800040a4:  00007517          auipc           a0,28672        # 0x8000b0a4
0x00000000800040a8:  f8450513          addi            a0,a0,-124
0x00000000800040ac:  9b6ff0ef          jal             ra,-3658        # 0x80003262

----------------
IN: 
0x00000000800040b0:  70a2              ld              ra,40(sp)
0x00000000800040b2:  7402              ld              s0,32(sp)
0x00000000800040b4:  8526              mv              a0,s1
0x00000000800040b6:  64e2              ld              s1,24(sp)
0x00000000800040b8:  6165              addi            sp,sp,112
0x00000000800040ba:  8082              ret             

----------------
IN: 
0x0000000080000aa6:  00008517          auipc           a0,32768        # 0x80008aa6
0x0000000080000aaa:  59a50513          addi            a0,a0,1434
0x0000000080000aae:  5b6030ef          jal             ra,13750        # 0x80004064

----------------
IN: 
0x0000000080000ab2:  120a0463          beqz            s4,296          # 0x80000bda

----------------
IN: 
0x0000000080000ab6:  008a0593          addi            a1,s4,8
0x0000000080000aba:  00008517          auipc           a0,32768        # 0x80008aba
0x0000000080000abe:  6ae50513          addi            a0,a0,1710
0x0000000080000ac2:  5a2030ef          jal             ra,13730        # 0x80004064

----------------
IN: 
0x0000000080000ac6:  301027f3          csrrs           a5,misa,zero

----------------
IN: 
0x0000000080000aca:  04000593          addi            a1,zero,64
0x0000000080000ace:  0007c463          bltz            a5,8            # 0x80000ad6

----------------
IN: 
0x0000000080000ad6:  f9040613          addi            a2,s0,-112
0x0000000080000ada:  00008517          auipc           a0,32768        # 0x80008ada
0x0000000080000ade:  6ae50513          addi            a0,a0,1710
0x0000000080000ae2:  582030ef          jal             ra,13698        # 0x80004064

----------------
IN: 
0x00000000800039e8:  85b2              mv              a1,a2
0x00000000800039ea:  02d5f733          remu            a4,a1,a3
0x00000000800039ee:  14fd              addi            s1,s1,-1
0x00000000800039f0:  02d5d633          divu            a2,a1,a3
0x00000000800039f4:  00e57363          bleu            a4,a0,6         # 0x800039fa

----------------
IN: 
0x0000000080000ae6:  4581              mv              a1,zero
0x0000000080000ae8:  020a0163          beqz            s4,34           # 0x80000b0a

----------------
IN: 
0x0000000080000aec:  051a4703          lbu             a4,81(s4)
0x0000000080000af0:  050a4683          lbu             a3,80(s4)
0x0000000080000af4:  052a4783          lbu             a5,82(s4)
0x0000000080000af8:  053a4583          lbu             a1,83(s4)
0x0000000080000afc:  0722              slli            a4,a4,8
0x0000000080000afe:  8f55              or              a4,a4,a3
0x0000000080000b00:  07c2              slli            a5,a5,16
0x0000000080000b02:  8fd9              or              a5,a5,a4
0x0000000080000b04:  05e2              slli            a1,a1,24
0x0000000080000b06:  8ddd              or              a1,a1,a5
0x0000000080000b08:  2581              sext.w          a1,a1
0x0000000080000b0a:  00008517          auipc           a0,32768        # 0x80008b0a
0x0000000080000b0e:  6a650513          addi            a0,a0,1702
0x0000000080000b12:  552030ef          jal             ra,13650        # 0x80004064

----------------
IN: 
0x0000000080000b16:  85ce              mv              a1,s3
0x0000000080000b18:  00008517          auipc           a0,32768        # 0x80008b18
0x0000000080000b1c:  6b850513          addi            a0,a0,1720
0x0000000080000b20:  544030ef          jal             ra,13636        # 0x80004064

----------------
IN: 
0x0000000080003b56:  06900793          addi            a5,zero,105
0x0000000080003b5a:  0cf60463          beq             a2,a5,200       # 0x80003c22

----------------
IN: 
0x0000000080003b5e:  07800793          addi            a5,zero,120
0x0000000080003b62:  16f60263          beq             a2,a5,356       # 0x80003cc6

----------------
IN: 
0x0000000080003b66:  05800793          addi            a5,zero,88
0x0000000080003b6a:  1cf60063          beq             a2,a5,448       # 0x80003d2a

----------------
IN: 
0x0000000080003b6e:  07500793          addi            a5,zero,117
0x0000000080003b72:  1cf60163          beq             a2,a5,450       # 0x80003d34

----------------
IN: 
0x0000000080003d34:  0009e603          lwu             a2,0(s3)
0x0000000080003d38:  06100893          addi            a7,zero,97
0x0000000080003d3c:  886a              mv              a6,s10
0x0000000080003d3e:  87f6              mv              a5,t4
0x0000000080003d40:  4701              mv              a4,zero
0x0000000080003d42:  46a9              addi            a3,zero,10
0x0000000080003d44:  b5fd              j               -274            # 0x80003c32

----------------
IN: 
0x0000000080003c32:  85d6              mv              a1,s5
0x0000000080003c34:  8552              mv              a0,s4
0x0000000080003c36:  d45ff0ef          jal             ra,-700         # 0x8000397a

----------------
IN: 
0x0000000080000b24:  0014c783          lbu             a5,1(s1)
0x0000000080000b28:  0004c703          lbu             a4,0(s1)
0x0000000080000b2c:  0024c583          lbu             a1,2(s1)
0x0000000080000b30:  0034c603          lbu             a2,3(s1)
0x0000000080000b34:  0044c683          lbu             a3,4(s1)
0x0000000080000b38:  07a2              slli            a5,a5,8
0x0000000080000b3a:  8fd9              or              a5,a5,a4
0x0000000080000b3c:  05c2              slli            a1,a1,16
0x0000000080000b3e:  0054c703          lbu             a4,5(s1)
0x0000000080000b42:  8ddd              or              a1,a1,a5
0x0000000080000b44:  0662              slli            a2,a2,24
0x0000000080000b46:  0064c783          lbu             a5,6(s1)
0x0000000080000b4a:  8e4d              or              a2,a2,a1
0x0000000080000b4c:  1682              slli            a3,a3,32
0x0000000080000b4e:  0074c583          lbu             a1,7(s1)
0x0000000080000b52:  8ed1              or              a3,a3,a2
0x0000000080000b54:  1722              slli            a4,a4,40
0x0000000080000b56:  8f55              or              a4,a4,a3
0x0000000080000b58:  17c2              slli            a5,a5,48
0x0000000080000b5a:  8fd9              or              a5,a5,a4
0x0000000080000b5c:  15e2              slli            a1,a1,56
0x0000000080000b5e:  8ddd              or              a1,a1,a5
0x0000000080000b60:  00008517          auipc           a0,32768        # 0x80008b60
0x0000000080000b64:  69050513          addi            a0,a0,1680
0x0000000080000b68:  4fc030ef          jal             ra,13564        # 0x80004064

----------------
IN: 
0x0000000080003b76:  07000793          addi            a5,zero,112
0x0000000080003b7a:  1cf60663          beq             a2,a5,460       # 0x80003d46

----------------
IN: 
0x0000000080003b7e:  05000793          addi            a5,zero,80
0x0000000080003b82:  1ef60563          beq             a2,a5,490       # 0x80003d6c

----------------
IN: 
0x0000000080003b86:  06c00793          addi            a5,zero,108
0x0000000080003b8a:  00148c13          addi            s8,s1,1
0x0000000080003b8e:  0cf60d63          beq             a2,a5,218       # 0x80003c68

----------------
IN: 
0x0000000080003c68:  0014c783          lbu             a5,1(s1)
0x0000000080003c6c:  00898f93          addi            t6,s3,8
0x0000000080003c70:  12c78063          beq             a5,a2,288       # 0x80003d90

----------------
IN: 
0x0000000080003c74:  07500713          addi            a4,zero,117
0x0000000080003c78:  0009b603          ld              a2,0(s3)
0x0000000080003c7c:  00148c13          addi            s8,s1,1
0x0000000080003c80:  0ee78b63          beq             a5,a4,246       # 0x80003d76

----------------
IN: 
0x0000000080003c84:  07800713          addi            a4,zero,120
0x0000000080003c88:  2b21              addiw           s6,s6,8
0x0000000080003c8a:  06e78663          beq             a5,a4,108       # 0x80003cf6

----------------
IN: 
0x0000000080003cf6:  f7f43823          sd              t6,-144(s0)
0x0000000080003cfa:  06100893          addi            a7,zero,97
0x0000000080003cfe:  886a              mv              a6,s10
0x0000000080003d00:  87f6              mv              a5,t4
0x0000000080003d02:  f7d43c23          sd              t4,-136(s0)
0x0000000080003d06:  4701              mv              a4,zero
0x0000000080003d08:  46c1              addi            a3,zero,16
0x0000000080003d0a:  85d6              mv              a1,s5
0x0000000080003d0c:  8552              mv              a0,s4
0x0000000080003d0e:  c6dff0ef          jal             ra,-916         # 0x8000397a

----------------
IN: 
0x0000000080003d12:  f7043f83          ld              t6,-144(s0)
0x0000000080003d16:  00248793          addi            a5,s1,2
0x0000000080003d1a:  01950cbb          addw            s9,a0,s9
0x0000000080003d1e:  84e2              mv              s1,s8
0x0000000080003d20:  89fe              mv              s3,t6
0x0000000080003d22:  8c3e              mv              s8,a5
0x0000000080003d24:  f7843e83          ld              t4,-136(s0)
0x0000000080003d28:  b5ad              j               -406            # 0x80003b92

----------------
IN: 
0x0000000080003b92:  0004c703          lbu             a4,0(s1)
0x0000000080003b96:  06300793          addi            a5,zero,99
0x0000000080003b9a:  06f71d63          bne             a4,a5,122       # 0x80003c14

----------------
IN: 
0x0000000080000b6c:  0094c603          lbu             a2,9(s1)
0x0000000080000b70:  0084c583          lbu             a1,8(s1)
0x0000000080000b74:  00a4c683          lbu             a3,10(s1)
0x0000000080000b78:  00b4c703          lbu             a4,11(s1)
0x0000000080000b7c:  00c4c783          lbu             a5,12(s1)
0x0000000080000b80:  0622              slli            a2,a2,8
0x0000000080000b82:  8e4d              or              a2,a2,a1
0x0000000080000b84:  06c2              slli            a3,a3,16
0x0000000080000b86:  00d4c583          lbu             a1,13(s1)
0x0000000080000b8a:  8ed1              or              a3,a3,a2
0x0000000080000b8c:  0762              slli            a4,a4,24
0x0000000080000b8e:  8f55              or              a4,a4,a3
0x0000000080000b90:  1782              slli            a5,a5,32
0x0000000080000b92:  8fd9              or              a5,a5,a4
0x0000000080000b94:  15a2              slli            a1,a1,40
0x0000000080000b96:  8ddd              or              a1,a1,a5
0x0000000080000b98:  05da              slli            a1,a1,22
0x0000000080000b9a:  9581              srai            a1,a1,32
0x0000000080000b9c:  00008517          auipc           a0,32768        # 0x80008b9c
0x0000000080000ba0:  67450513          addi            a0,a0,1652
0x0000000080000ba4:  4c0030ef          jal             ra,13504        # 0x80004064

----------------
IN: 
0x0000000080000ba8:  5f2030ef          jal             ra,13810        # 0x8000419a

----------------
IN: 
0x000000008000419a:  1141              addi            sp,sp,-16
0x000000008000419c:  e422              sd              s0,8(sp)
0x000000008000419e:  0800              addi            s0,sp,16
0x00000000800041a0:  6422              ld              s0,8(sp)
0x00000000800041a2:  4501              mv              a0,zero
0x00000000800041a4:  0141              addi            sp,sp,16
0x00000000800041a6:  8082              ret             

----------------
IN: 
0x0000000080000bac:  8a2a              mv              s4,a0
0x0000000080000bae:  5fa030ef          jal             ra,13818        # 0x800041a8

----------------
IN: 
0x00000000800041a8:  1141              addi            sp,sp,-16
0x00000000800041aa:  e422              sd              s0,8(sp)
0x00000000800041ac:  0800              addi            s0,sp,16
0x00000000800041ae:  6422              ld              s0,8(sp)
0x00000000800041b0:  4505              addi            a0,zero,1
0x00000000800041b2:  0141              addi            sp,sp,16
0x00000000800041b4:  8082              ret             

----------------
IN: 
0x0000000080000bb2:  0005061b          sext.w          a2,a0
0x0000000080000bb6:  000a059b          sext.w          a1,s4
0x0000000080000bba:  00008517          auipc           a0,32768        # 0x80008bba
0x0000000080000bbe:  67650513          addi            a0,a0,1654
0x0000000080000bc2:  4a2030ef          jal             ra,13474        # 0x80004064

----------------
IN: 
0x0000000080000bc6:  00008517          auipc           a0,32768        # 0x80008bc6
0x0000000080000bca:  59a50513          addi            a0,a0,1434
0x0000000080000bce:  496030ef          jal             ra,13462        # 0x80004064

----------------
IN: 
0x0000000080000bd2:  8526              mv              a0,s1
0x0000000080000bd4:  5e9030ef          jal             ra,15848        # 0x800049bc

----------------
IN: 
0x00000000800049bc:  03154703          lbu             a4,49(a0)
0x00000000800049c0:  03054683          lbu             a3,48(a0)
0x00000000800049c4:  03254783          lbu             a5,50(a0)
0x00000000800049c8:  03354583          lbu             a1,51(a0)
0x00000000800049cc:  0722              slli            a4,a4,8
0x00000000800049ce:  03454603          lbu             a2,52(a0)
0x00000000800049d2:  8f55              or              a4,a4,a3
0x00000000800049d4:  07c2              slli            a5,a5,16
0x00000000800049d6:  03554683          lbu             a3,53(a0)
0x00000000800049da:  8fd9              or              a5,a5,a4
0x00000000800049dc:  05e2              slli            a1,a1,24
0x00000000800049de:  03654703          lbu             a4,54(a0)
0x00000000800049e2:  8ddd              or              a1,a1,a5
0x00000000800049e4:  1602              slli            a2,a2,32
0x00000000800049e6:  03754783          lbu             a5,55(a0)
0x00000000800049ea:  8e4d              or              a2,a2,a1
0x00000000800049ec:  16a2              slli            a3,a3,40
0x00000000800049ee:  8ed1              or              a3,a3,a2
0x00000000800049f0:  1742              slli            a4,a4,48
0x00000000800049f2:  8f55              or              a4,a4,a3
0x00000000800049f4:  17e2              slli            a5,a5,56
0x00000000800049f6:  8fd9              or              a5,a5,a4
0x00000000800049f8:  0487c783          lbu             a5,72(a5)
0x00000000800049fc:  8b91              andi            a5,a5,4
0x00000000800049fe:  10078363          beqz            a5,262          # 0x80004b04

----------------
IN: 
0x0000000080004a02:  7159              addi            sp,sp,-112
0x0000000080004a04:  f0a2              sd              s0,96(sp)
0x0000000080004a06:  eca6              sd              s1,88(sp)
0x0000000080004a08:  e8ca              sd              s2,80(sp)
0x0000000080004a0a:  e4ce              sd              s3,72(sp)
0x0000000080004a0c:  e0d2              sd              s4,64(sp)
0x0000000080004a0e:  fc56              sd              s5,56(sp)
0x0000000080004a10:  f85a              sd              s6,48(sp)
0x0000000080004a12:  f45e              sd              s7,40(sp)
0x0000000080004a14:  f062              sd              s8,32(sp)
0x0000000080004a16:  f486              sd              ra,104(sp)
0x0000000080004a18:  1880              addi            s0,sp,112
0x0000000080004a1a:  4481              mv              s1,zero
0x0000000080004a1c:  03f00a13          addi            s4,zero,63
0x0000000080004a20:  00005997          auipc           s3,20480        # 0x80009a20
0x0000000080004a24:  ce098993          addi            s3,s3,-800
0x0000000080004a28:  00005917          auipc           s2,20480        # 0x80009a28
0x0000000080004a2c:  9f090913          addi            s2,s2,-1552
0x0000000080004a30:  00005c17          auipc           s8,20480        # 0x80009a30
0x0000000080004a34:  d08c0c13          addi            s8,s8,-760
0x0000000080004a38:  00005b97          auipc           s7,20480        # 0x80009a38
0x0000000080004a3c:  cf8b8b93          addi            s7,s7,-776
0x0000000080004a40:  00005b17          auipc           s6,20480        # 0x80009a40
0x0000000080004a44:  ce8b0b13          addi            s6,s6,-792
0x0000000080004a48:  00005a97          auipc           s5,20480        # 0x80009a48
0x0000000080004a4c:  cd8a8a93          addi            s5,s5,-808
0x0000000080004a50:  a005              j               32              # 0x80004a70

----------------
IN: 
0x0000000080004a70:  fa840693          addi            a3,s0,-88
0x0000000080004a74:  fa040613          addi            a2,s0,-96
0x0000000080004a78:  f9840593          addi            a1,s0,-104
0x0000000080004a7c:  8526              mv              a0,s1
0x0000000080004a7e:  2e9010ef          jal             ra,6888         # 0x80006566

----------------
IN: 
0x0000000080006566:  47bd              addi            a5,zero,15
0x0000000080006568:  0ca7e963          bgtu            a0,a5,210       # 0x8000663a

----------------
IN: 
0x000000008000656c:  c5f9              beqz            a1,206          # 0x8000663a

----------------
IN: 
0x000000008000656e:  c671              beqz            a2,204          # 0x8000663a

----------------
IN: 
0x0000000080006570:  c6e9              beqz            a3,202          # 0x8000663a

----------------
IN: 
0x0000000080006572:  7139              addi            sp,sp,-64
0x0000000080006574:  f822              sd              s0,48(sp)
0x0000000080006576:  f426              sd              s1,40(sp)
0x0000000080006578:  f04a              sd              s2,32(sp)
0x000000008000657a:  ec4e              sd              s3,24(sp)
0x000000008000657c:  e852              sd              s4,16(sp)
0x000000008000657e:  e456              sd              s5,8(sp)
0x0000000080006580:  e05a              sd              s6,0(sp)
0x0000000080006582:  fc06              sd              ra,56(sp)
0x0000000080006584:  0080              addi            s0,sp,64
0x0000000080006586:  87aa              mv              a5,a0
0x0000000080006588:  0025551b          srliw           a0,a0,2
0x000000008000658c:  0006b023          sd              zero,0(a3)
0x0000000080006590:  3a05051b          addiw           a0,a0,928
0x0000000080006594:  0037991b          slliw           s2,a5,3
0x0000000080006598:  00063023          sd              zero,0(a2)
0x000000008000659c:  9979              andi            a0,a0,-2
0x000000008000659e:  03897b13          andi            s6,s2,56
0x00000000800065a2:  0005b023          sd              zero,0(a1)
0x00000000800065a6:  2501              sext.w          a0,a0
0x00000000800065a8:  0ff00913          addi            s2,zero,255
0x00000000800065ac:  3b07849b          addiw           s1,a5,944
0x00000000800065b0:  8ab6              mv              s5,a3
0x00000000800065b2:  8a32              mv              s4,a2
0x00000000800065b4:  89ae              mv              s3,a1
0x00000000800065b6:  0169193b          sllw            s2,s2,s6
0x00000000800065ba:  d77ff0ef          jal             ra,-650         # 0x80006330

----------------
IN: 
0x00000000800065be:  00a97933          and             s2,s2,a0
0x00000000800065c2:  01695933          srl             s2,s2,s6
0x00000000800065c6:  01897713          andi            a4,s2,24
0x00000000800065ca:  47e1              addi            a5,zero,24
0x00000000800065cc:  8526              mv              a0,s1
0x00000000800065ce:  02f70763          beq             a4,a5,46        # 0x800065fc

----------------
IN: 
0x00000000800065fc:  d35ff0ef          jal             ra,-716         # 0x80006330

----------------
IN: 
0x00000000800063b8:  3b002573          csrrs           a0,pmpaddr0,zero

----------------
IN: 
0x00000000800063bc:  b74d              j               -94             # 0x8000635e

----------------
IN: 
0x0000000080006600:  57fd              addi            a5,zero,-1
0x0000000080006602:  02f50863          beq             a0,a5,48        # 0x80006632

----------------
IN: 
0x0000000080006606:  fff54713          not             a4,a0
0x000000008000660a:  00177793          andi            a5,a4,1
0x000000008000660e:  c789              beqz            a5,10           # 0x80006618

----------------
IN: 
0x0000000080006618:  8305              srli            a4,a4,1
0x000000008000661a:  00177693          andi            a3,a4,1
0x000000008000661e:  00178613          addi            a2,a5,1
0x0000000080006622:  daf5              beqz            a3,-12          # 0x80006616

----------------
IN: 
0x0000000080006616:  87b2              mv              a5,a2
0x0000000080006618:  8305              srli            a4,a4,1
0x000000008000661a:  00177693          andi            a3,a4,1
0x000000008000661e:  00178613          addi            a2,a5,1
0x0000000080006622:  daf5              beqz            a3,-12          # 0x80006616

----------------
IN: 
0x0000000080006624:  577d              addi            a4,zero,-1
0x0000000080006626:  00c71633          sll             a2,a4,a2
0x000000008000662a:  8d71              and             a0,a0,a2
0x000000008000662c:  0791              addi            a5,a5,4
0x000000008000662e:  050a              slli            a0,a0,2
0x0000000080006630:  b76d              j               -86             # 0x800065da

----------------
IN: 
0x00000000800065da:  0129b023          sd              s2,0(s3)
0x00000000800065de:  00aa3023          sd              a0,0(s4)
0x00000000800065e2:  00fab023          sd              a5,0(s5)
0x00000000800065e6:  70e2              ld              ra,56(sp)
0x00000000800065e8:  7442              ld              s0,48(sp)
0x00000000800065ea:  74a2              ld              s1,40(sp)
0x00000000800065ec:  7902              ld              s2,32(sp)
0x00000000800065ee:  69e2              ld              s3,24(sp)
0x00000000800065f0:  6a42              ld              s4,16(sp)
0x00000000800065f2:  6aa2              ld              s5,8(sp)
0x00000000800065f4:  6b02              ld              s6,0(sp)
0x00000000800065f6:  4501              mv              a0,zero
0x00000000800065f8:  6121              addi            sp,sp,64
0x00000000800065fa:  8082              ret             

----------------
IN: 
0x0000000080004a82:  f9843783          ld              a5,-104(s0)
0x0000000080004a86:  8be1              andi            a5,a5,24
0x0000000080004a88:  d3e5              beqz            a5,-32          # 0x80004a68

----------------
IN: 
0x0000000080004a8a:  fa843703          ld              a4,-88(s0)
0x0000000080004a8e:  4781              mv              a5,zero
0x0000000080004a90:  00ea6563          bgtu            a4,s4,10        # 0x80004a9a

----------------
IN: 
0x0000000080004a94:  4785              addi            a5,zero,1
0x0000000080004a96:  00e797b3          sll             a5,a5,a4
0x0000000080004a9a:  fa043603          ld              a2,-96(s0)
0x0000000080004a9e:  85a6              mv              a1,s1
0x0000000080004aa0:  854e              mv              a0,s3
0x0000000080004aa2:  fff60693          addi            a3,a2,-1
0x0000000080004aa6:  96be              add             a3,a3,a5
0x0000000080004aa8:  dbcff0ef          jal             ra,-2628        # 0x80004064

----------------
IN: 
0x0000000080003b08:  0485              addi            s1,s1,1
0x0000000080003b0a:  0004c603          lbu             a2,0(s1)
0x0000000080003b0e:  002d6d13          ori             s10,s10,2
0x0000000080003b12:  ff760be3          beq             a2,s7,-10       # 0x80003b08

----------------
IN: 
0x0000000080003b24:  0485              addi            s1,s1,1
0x0000000080003b26:  002e979b          slliw           a5,t4,2
0x0000000080003b2a:  0004c603          lbu             a2,0(s1)
0x0000000080003b2e:  01d787bb          addw            a5,a5,t4
0x0000000080003b32:  0017979b          slliw           a5,a5,1
0x0000000080003b36:  00f70ebb          addw            t4,a4,a5
0x0000000080003b3a:  fd06071b          addiw           a4,a2,-48
0x0000000080003b3e:  0ff77793          andi            a5,a4,255
0x0000000080003b42:  fefdf1e3          bleu            a5,s11,-30      # 0x80003b24

----------------
IN: 
0x00000000800038b2:  c261              beqz            a2,192          # 0x80003972

----------------
IN: 
0x00000000800038b4:  4585              addi            a1,zero,1
0x00000000800038b6:  87ca              mv              a5,s2
0x00000000800038b8:  412585bb          subw            a1,a1,s2
0x00000000800038bc:  00f589bb          addw            s3,a1,a5
0x00000000800038c0:  0785              addi            a5,a5,1
0x00000000800038c2:  0007c683          lbu             a3,0(a5)
0x00000000800038c6:  fafd              bnez            a3,-10          # 0x800038bc

----------------
IN: 
0x00000000800038bc:  00f589bb          addw            s3,a1,a5
0x00000000800038c0:  0785              addi            a5,a5,1
0x00000000800038c2:  0007c683          lbu             a3,0(a5)
0x00000000800038c6:  fafd              bnez            a3,-10          # 0x800038bc

----------------
IN: 
0x00000000800038c8:  0099cc63          bgt             s1,s3,24        # 0x800038e0

----------------
IN: 
0x00000000800038e0:  413489bb          subw            s3,s1,s3
0x00000000800038e4:  00277793          andi            a5,a4,2
0x00000000800038e8:  03000b93          addi            s7,zero,48
0x00000000800038ec:  c7bd              beqz            a5,110          # 0x8000395a

----------------
IN: 
0x00000000800038ee:  8b05              andi            a4,a4,1
0x00000000800038f0:  84ce              mv              s1,s3
0x00000000800038f2:  eb3d              bnez            a4,118          # 0x80003968

----------------
IN: 
0x00000000800038f4:  34fd              addiw           s1,s1,-1
0x00000000800038f6:  865e              mv              a2,s7
0x00000000800038f8:  85d6              mv              a1,s5
0x00000000800038fa:  8552              mv              a0,s4
0x00000000800038fc:  f4fff0ef          jal             ra,-178         # 0x8000384a

----------------
IN: 
0x0000000080003900:  f8f5              bnez            s1,-12          # 0x800038f4

----------------
IN: 
0x0000000080003902:  00094603          lbu             a2,0(s2)
0x0000000080003906:  ca15              beqz            a2,52           # 0x8000393a

----------------
IN: 
0x00000000800039f8:  9772              add             a4,a4,t3
0x00000000800039fa:  0307071b          addiw           a4,a4,48
0x00000000800039fe:  00e48023          sb              a4,0(s1)
0x0000000080003a02:  fed5f3e3          bleu            a3,a1,-26       # 0x800039e8

----------------
IN: 
0x0000000080004aac:  f9843783          ld              a5,-104(s0)
0x0000000080004ab0:  0807f713          andi            a4,a5,128
0x0000000080004ab4:  df59              beqz            a4,-98          # 0x80004a52

----------------
IN: 
0x0000000080004a52:  0017f713          andi            a4,a5,1
0x0000000080004a56:  eb25              bnez            a4,112          # 0x80004ac6

----------------
IN: 
0x0000000080004a58:  0027f713          andi            a4,a5,2
0x0000000080004a5c:  ef2d              bnez            a4,122          # 0x80004ad6

----------------
IN: 
0x0000000080004a5e:  8b91              andi            a5,a5,4
0x0000000080004a60:  e3d1              bnez            a5,132          # 0x80004ae4

----------------
IN: 
0x0000000080004a62:  854a              mv              a0,s2
0x0000000080004a64:  e00ff0ef          jal             ra,-2560        # 0x80004064

----------------
IN: 
0x0000000080004a68:  2485              addiw           s1,s1,1
0x0000000080004a6a:  47c1              addi            a5,zero,16
0x0000000080004a6c:  08f48063          beq             s1,a5,128       # 0x80004aec

----------------
IN: 
0x00000000800063b2:  3b102573          csrrs           a0,pmpaddr1,zero

----------------
IN: 
0x00000000800063b6:  b765              j               -88             # 0x8000635e

----------------
IN: 
0x0000000080006632:  04000793          addi            a5,zero,64
0x0000000080006636:  4501              mv              a0,zero
0x0000000080006638:  b74d              j               -94             # 0x800065da

----------------
IN: 
0x0000000080004a9a:  fa043603          ld              a2,-96(s0)
0x0000000080004a9e:  85a6              mv              a1,s1
0x0000000080004aa0:  854e              mv              a0,s3
0x0000000080004aa2:  fff60693          addi            a3,a2,-1
0x0000000080004aa6:  96be              add             a3,a3,a5
0x0000000080004aa8:  dbcff0ef          jal             ra,-2628        # 0x80004064

----------------
IN: 
0x00000000800038cc:  00277993          andi            s3,a4,2
0x00000000800038d0:  2981              sext.w          s3,s3
0x00000000800038d2:  08098763          beqz            s3,142          # 0x80003960

----------------
IN: 
0x00000000800038d6:  03000b93          addi            s7,zero,48
0x00000000800038da:  4481              mv              s1,zero
0x00000000800038dc:  4981              mv              s3,zero
0x00000000800038de:  a02d              j               42              # 0x80003908

----------------
IN: 
0x0000000080004ac6:  855a              mv              a0,s6
0x0000000080004ac8:  d9cff0ef          jal             ra,-2660        # 0x80004064

----------------
IN: 
0x0000000080004acc:  f9843783          ld              a5,-104(s0)
0x0000000080004ad0:  0027f713          andi            a4,a5,2
0x0000000080004ad4:  d749              beqz            a4,-118         # 0x80004a5e

----------------
IN: 
0x0000000080004ad6:  855e              mv              a0,s7
0x0000000080004ad8:  d8cff0ef          jal             ra,-2676        # 0x80004064

----------------
IN: 
0x0000000080004adc:  f9843783          ld              a5,-104(s0)
0x0000000080004ae0:  8b91              andi            a5,a5,4
0x0000000080004ae2:  d3c1              beqz            a5,-128         # 0x80004a62

----------------
IN: 
0x0000000080004ae4:  8562              mv              a0,s8
0x0000000080004ae6:  d7eff0ef          jal             ra,-2690        # 0x80004064

----------------
IN: 
0x0000000080004aea:  bfa5              j               -136            # 0x80004a62

----------------
IN: 
0x00000000800065d2:  d5fff0ef          jal             ra,-674         # 0x80006330

----------------
IN: 
0x00000000800063ac:  3b202573          csrrs           a0,pmpaddr2,zero

----------------
IN: 
0x00000000800063b0:  b77d              j               -82             # 0x8000635e

----------------
IN: 
0x00000000800065d6:  050a              slli            a0,a0,2
0x00000000800065d8:  4789              addi            a5,zero,2
0x00000000800065da:  0129b023          sd              s2,0(s3)
0x00000000800065de:  00aa3023          sd              a0,0(s4)
0x00000000800065e2:  00fab023          sd              a5,0(s5)
0x00000000800065e6:  70e2              ld              ra,56(sp)
0x00000000800065e8:  7442              ld              s0,48(sp)
0x00000000800065ea:  74a2              ld              s1,40(sp)
0x00000000800065ec:  7902              ld              s2,32(sp)
0x00000000800065ee:  69e2              ld              s3,24(sp)
0x00000000800065f0:  6a42              ld              s4,16(sp)
0x00000000800065f2:  6aa2              ld              s5,8(sp)
0x00000000800065f4:  6b02              ld              s6,0(sp)
0x00000000800065f6:  4501              mv              a0,zero
0x00000000800065f8:  6121              addi            sp,sp,64
0x00000000800065fa:  8082              ret             

----------------
IN: 
0x00000000800063a6:  3b302573          csrrs           a0,pmpaddr3,zero

----------------
IN: 
0x00000000800063aa:  bf55              j               -76             # 0x8000635e

----------------
IN: 
0x00000000800063a0:  3b402573          csrrs           a0,pmpaddr4,zero

----------------
IN: 
0x00000000800063a4:  bf6d              j               -70             # 0x8000635e

----------------
IN: 
0x000000008000639a:  3b502573          csrrs           a0,pmpaddr5,zero

----------------
IN: 
0x000000008000639e:  b7c1              j               -64             # 0x8000635e

----------------
IN: 
0x0000000080006394:  3b602573          csrrs           a0,pmpaddr6,zero

----------------
IN: 
0x0000000080006398:  b7d9              j               -58             # 0x8000635e

----------------
IN: 
0x000000008000638e:  3b702573          csrrs           a0,pmpaddr7,zero

----------------
IN: 
0x0000000080006392:  b7f1              j               -52             # 0x8000635e

----------------
IN: 
0x00000000800063c4:  3a202573          csrrs           a0,0x3a2,zero

----------------
IN: 
0x00000000800063c8:  bf59              j               -106            # 0x8000635e

----------------
IN: 
0x0000000080006388:  3b802573          csrrs           a0,pmpaddr8,zero

----------------
IN: 
0x000000008000638c:  bfc9              j               -46             # 0x8000635e

----------------
IN: 
0x0000000080006382:  3b902573          csrrs           a0,pmpaddr9,zero

----------------
IN: 
0x0000000080006386:  bfe1              j               -40             # 0x8000635e

----------------
IN: 
0x000000008000637c:  3ba02573          csrrs           a0,pmpaddr10,zero

----------------
IN: 
0x0000000080006380:  bff9              j               -34             # 0x8000635e

----------------
IN: 
0x0000000080006376:  3bb02573          csrrs           a0,pmpaddr11,zero

----------------
IN: 
0x000000008000637a:  b7d5              j               -28             # 0x8000635e

----------------
IN: 
0x0000000080006370:  3bc02573          csrrs           a0,pmpaddr12,zero

----------------
IN: 
0x0000000080006374:  b7ed              j               -22             # 0x8000635e

----------------
IN: 
0x000000008000636a:  3bd02573          csrrs           a0,pmpaddr14,zero

----------------
IN: 
0x000000008000636e:  bfc5              j               -16             # 0x8000635e

----------------
IN: 
0x0000000080006364:  3be02573          csrrs           a0,pmpaddr13,zero

----------------
IN: 
0x0000000080006368:  bfdd              j               -10             # 0x8000635e

----------------
IN: 
0x000000008000635a:  3bf02573          csrrs           a0,pmpaddr15,zero

----------------
IN: 
0x0000000080004aec:  70a6              ld              ra,104(sp)
0x0000000080004aee:  7406              ld              s0,96(sp)
0x0000000080004af0:  64e6              ld              s1,88(sp)
0x0000000080004af2:  6946              ld              s2,80(sp)
0x0000000080004af4:  69a6              ld              s3,72(sp)
0x0000000080004af6:  6a06              ld              s4,64(sp)
0x0000000080004af8:  7ae2              ld              s5,56(sp)
0x0000000080004afa:  7b42              ld              s6,48(sp)
0x0000000080004afc:  7ba2              ld              s7,40(sp)
0x0000000080004afe:  7c02              ld              s8,32(sp)
0x0000000080004b00:  6165              addi            sp,sp,112
0x0000000080004b02:  8082              ret             

----------------
IN: 
0x0000000080000bd8:  bb3d              j               -706            # 0x80000916

----------------
IN: 
0x0000000080000916:  04894783          lbu             a5,72(s2)
0x000000008000091a:  8b89              andi            a5,a5,2
0x000000008000091c:  0e078a63          beqz            a5,244          # 0x80000a10

----------------
IN: 
0x0000000080000a10:  85ce              mv              a1,s3
0x0000000080000a12:  8526              mv              a0,s1
0x0000000080000a14:  03f040ef          jal             ra,18494        # 0x80005252

----------------
IN: 
0x0000000080005252:  7139              addi            sp,sp,-64
0x0000000080005254:  f822              sd              s0,48(sp)
0x0000000080005256:  fc06              sd              ra,56(sp)
0x0000000080005258:  f426              sd              s1,40(sp)
0x000000008000525a:  f04a              sd              s2,32(sp)
0x000000008000525c:  ec4e              sd              s3,24(sp)
0x000000008000525e:  e852              sd              s4,16(sp)
0x0000000080005260:  e456              sd              s5,8(sp)
0x0000000080005262:  e05a              sd              s6,0(sp)
0x0000000080005264:  0080              addi            s0,sp,64
0x0000000080005266:  03154783          lbu             a5,49(a0)
0x000000008000526a:  03054703          lbu             a4,48(a0)
0x000000008000526e:  03254603          lbu             a2,50(a0)
0x0000000080005272:  03354903          lbu             s2,51(a0)
0x0000000080005276:  07a2              slli            a5,a5,8
0x0000000080005278:  03454683          lbu             a3,52(a0)
0x000000008000527c:  8fd9              or              a5,a5,a4
0x000000008000527e:  0642              slli            a2,a2,16
0x0000000080005280:  03554703          lbu             a4,53(a0)
0x0000000080005284:  8e5d              or              a2,a2,a5
0x0000000080005286:  0962              slli            s2,s2,24
0x0000000080005288:  03654783          lbu             a5,54(a0)
0x000000008000528c:  00c96933          or              s2,s2,a2
0x0000000080005290:  1682              slli            a3,a3,32
0x0000000080005292:  03754603          lbu             a2,55(a0)
0x0000000080005296:  0126e933          or              s2,a3,s2
0x000000008000529a:  1722              slli            a4,a4,40
0x000000008000529c:  01276933          or              s2,a4,s2
0x00000000800052a0:  17c2              slli            a5,a5,48
0x00000000800052a2:  0127e7b3          or              a5,a5,s2
0x00000000800052a6:  03861913          slli            s2,a2,56
0x00000000800052aa:  00f96933          or              s2,s2,a5
0x00000000800052ae:  0e090163          beqz            s2,226          # 0x80005390

----------------
IN: 
0x00000000800052b2:  05194703          lbu             a4,81(s2)
0x00000000800052b6:  05094683          lbu             a3,80(s2)
0x00000000800052ba:  05294783          lbu             a5,82(s2)
0x00000000800052be:  05394a03          lbu             s4,83(s2)
0x00000000800052c2:  0722              slli            a4,a4,8
0x00000000800052c4:  8f55              or              a4,a4,a3
0x00000000800052c6:  07c2              slli            a5,a5,16
0x00000000800052c8:  8fd9              or              a5,a5,a4
0x00000000800052ca:  0a62              slli            s4,s4,24
0x00000000800052cc:  00fa6a33          or              s4,s4,a5
0x00000000800052d0:  2a01              sext.w          s4,s4
0x00000000800052d2:  0b405f63          blez            s4,190          # 0x80005390

----------------
IN: 
0x00000000800052d6:  8aae              mv              s5,a1
0x00000000800052d8:  4481              mv              s1,zero
0x00000000800052da:  00006997          auipc           s3,24576        # 0x8000b2da
0x00000000800052de:  d6698993          addi            s3,s3,-666
0x00000000800052e2:  00006b17          auipc           s6,24576        # 0x8000b2e2
0x00000000800052e6:  d56b0b13          addi            s6,s6,-682
0x00000000800052ea:  854e              mv              a0,s3
0x00000000800052ec:  f59fd0ef          jal             ra,-8360        # 0x80003244

----------------
IN: 
0x00000000800052f0:  0004851b          sext.w          a0,s1
0x00000000800052f4:  09550863          beq             a0,s5,144       # 0x80005384

----------------
IN: 
0x0000000080005384:  2485              addiw           s1,s1,1
0x0000000080005386:  854e              mv              a0,s3
0x0000000080005388:  edbfd0ef          jal             ra,-8486        # 0x80003262

----------------
IN: 
0x000000008000538c:  f49a1fe3          bne             s4,s1,-162      # 0x800052ea

----------------
IN: 
0x00000000800052ea:  854e              mv              a0,s3
0x00000000800052ec:  f59fd0ef          jal             ra,-8360        # 0x80003244

----------------
IN: 
0x00000000800052f8:  000b3783          ld              a5,0(s6)
0x00000000800052fc:  0097d7b3          srl             a5,a5,s1
0x0000000080005300:  8b85              andi            a5,a5,1
0x0000000080005302:  c3c9              beqz            a5,130          # 0x80005384

----------------
IN: 
0x0000000080005390:  70e2              ld              ra,56(sp)
0x0000000080005392:  7442              ld              s0,48(sp)
0x0000000080005394:  74a2              ld              s1,40(sp)
0x0000000080005396:  7902              ld              s2,32(sp)
0x0000000080005398:  69e2              ld              s3,24(sp)
0x000000008000539a:  6a42              ld              s4,16(sp)
0x000000008000539c:  6aa2              ld              s5,8(sp)
0x000000008000539e:  6b02              ld              s6,0(sp)
0x00000000800053a0:  6121              addi            sp,sp,64
0x00000000800053a2:  8082              ret             

----------------
IN: 
0x0000000080000a18:  b721              j               -248            # 0x80000920

----------------
IN: 
0x0000000080000920:  854e              mv              a0,s3
0x0000000080000922:  718040ef          jal             ra,18200        # 0x8000503a

----------------
IN: 
0x000000008000503a:  1101              addi            sp,sp,-32
0x000000008000503c:  ec06              sd              ra,24(sp)
0x000000008000503e:  e822              sd              s0,16(sp)
0x0000000080005040:  e426              sd              s1,8(sp)
0x0000000080005042:  1000              addi            s0,sp,32
0x0000000080005044:  84aa              mv              s1,a0
0x0000000080005046:  00006517          auipc           a0,24576        # 0x8000b046
0x000000008000504a:  00a50513          addi            a0,a0,10
0x000000008000504e:  9f6fe0ef          jal             ra,-7690        # 0x80003244

----------------
IN: 
0x0000000080005052:  00006717          auipc           a4,24576        # 0x8000b052
0x0000000080005056:  ff670713          addi            a4,a4,-10
0x000000008000505a:  6314              ld              a3,0(a4)
0x000000008000505c:  4785              addi            a5,zero,1
0x000000008000505e:  009797b3          sll             a5,a5,s1
0x0000000080005062:  8fd5              or              a5,a5,a3
0x0000000080005064:  00006517          auipc           a0,24576        # 0x8000b064
0x0000000080005068:  fec50513          addi            a0,a0,-20
0x000000008000506c:  e31c              sd              a5,0(a4)
0x000000008000506e:  9f4fe0ef          jal             ra,-7692        # 0x80003262

----------------
IN: 
0x0000000080005072:  60e2              ld              ra,24(sp)
0x0000000080005074:  6442              ld              s0,16(sp)
0x0000000080005076:  64a2              ld              s1,8(sp)
0x0000000080005078:  6105              addi            sp,sp,32
0x000000008000507a:  8082              ret             

----------------
IN: 
0x0000000080000926:  0214c683          lbu             a3,33(s1)
0x000000008000092a:  0194c703          lbu             a4,25(s1)
0x000000008000092e:  0114c783          lbu             a5,17(s1)
0x0000000080000932:  0204c503          lbu             a0,32(s1)
0x0000000080000936:  0184c603          lbu             a2,24(s1)
0x000000008000093a:  0104c583          lbu             a1,16(s1)
0x000000008000093e:  0224ce83          lbu             t4,34(s1)
0x0000000080000942:  01a4ce03          lbu             t3,26(s1)
0x0000000080000946:  0124cf03          lbu             t5,18(s1)
0x000000008000094a:  0234c383          lbu             t2,35(s1)
0x000000008000094e:  01b4c283          lbu             t0,27(s1)
0x0000000080000952:  0134cf83          lbu             t6,19(s1)
0x0000000080000956:  06a2              slli            a3,a3,8
0x0000000080000958:  0244c303          lbu             t1,36(s1)
0x000000008000095c:  0722              slli            a4,a4,8
0x000000008000095e:  01c4c883          lbu             a7,28(s1)
0x0000000080000962:  07a2              slli            a5,a5,8
0x0000000080000964:  0144c803          lbu             a6,20(s1)
0x0000000080000968:  8ec9              or              a3,a3,a0
0x000000008000096a:  8f51              or              a4,a4,a2
0x000000008000096c:  8fcd              or              a5,a5,a1
0x000000008000096e:  0ec2              slli            t4,t4,16
0x0000000080000970:  0254c503          lbu             a0,37(s1)
0x0000000080000974:  0e42              slli            t3,t3,16
0x0000000080000976:  01d4c603          lbu             a2,29(s1)
0x000000008000097a:  0f42              slli            t5,t5,16
0x000000008000097c:  0154c583          lbu             a1,21(s1)
0x0000000080000980:  00deeeb3          or              t4,t4,a3
0x0000000080000984:  00ee6e33          or              t3,t3,a4
0x0000000080000988:  00ff6f33          or              t5,t5,a5
0x000000008000098c:  03e2              slli            t2,t2,24
0x000000008000098e:  0264c683          lbu             a3,38(s1)
0x0000000080000992:  02e2              slli            t0,t0,24
0x0000000080000994:  01e4c703          lbu             a4,30(s1)
0x0000000080000998:  0fe2              slli            t6,t6,24
0x000000008000099a:  0164c783          lbu             a5,22(s1)
0x000000008000099e:  01d3e3b3          or              t2,t2,t4
0x00000000800009a2:  01c2e2b3          or              t0,t0,t3
0x00000000800009a6:  01efefb3          or              t6,t6,t5
0x00000000800009aa:  1302              slli            t1,t1,32
0x00000000800009ac:  0274ce83          lbu             t4,39(s1)
0x00000000800009b0:  1882              slli            a7,a7,32
0x00000000800009b2:  01f4ce03          lbu             t3,31(s1)
0x00000000800009b6:  1802              slli            a6,a6,32
0x00000000800009b8:  0174cf03          lbu             t5,23(s1)
0x00000000800009bc:  00736333          or              t1,t1,t2
0x00000000800009c0:  1522              slli            a0,a0,40
0x00000000800009c2:  0058e8b3          or              a7,a7,t0
0x00000000800009c6:  1622              slli            a2,a2,40
0x00000000800009c8:  01f86833          or              a6,a6,t6
0x00000000800009cc:  15a2              slli            a1,a1,40
0x00000000800009ce:  00656533          or              a0,a0,t1
0x00000000800009d2:  01166633          or              a2,a2,a7
0x00000000800009d6:  0105e5b3          or              a1,a1,a6
0x00000000800009da:  16c2              slli            a3,a3,48
0x00000000800009dc:  1742              slli            a4,a4,48
0x00000000800009de:  17c2              slli            a5,a5,48
0x00000000800009e0:  8ec9              or              a3,a3,a0
0x00000000800009e2:  8f51              or              a4,a4,a2
0x00000000800009e4:  8fcd              or              a5,a5,a1
0x00000000800009e6:  1ee2              slli            t4,t4,56
0x00000000800009e8:  038e1613          slli            a2,t3,56
0x00000000800009ec:  038f1593          slli            a1,t5,56
0x00000000800009f0:  02099513          slli            a0,s3,32
0x00000000800009f4:  00dee6b3          or              a3,t4,a3
0x00000000800009f8:  8e59              or              a2,a2,a4
0x00000000800009fa:  8ddd              or              a1,a1,a5
0x00000000800009fc:  9101              srli            a0,a0,32
0x00000000800009fe:  5a8040ef          jal             ra,17832        # 0x80004fa6

----------------
IN: 
0x0000000080004fa6:  1141              addi            sp,sp,-16
0x0000000080004fa8:  e422              sd              s0,8(sp)
0x0000000080004faa:  0800              addi            s0,sp,16
0x0000000080004fac:  4785              addi            a5,zero,1
0x0000000080004fae:  00f68b63          beq             a3,a5,22        # 0x80004fc4

----------------
IN: 
0x0000000080004fc4:  301027f3          csrrs           a5,misa,zero

----------------
IN: 
0x0000000080004fc8:  02d79713          slli            a4,a5,45
0x0000000080004fcc:  02074263          bltz            a4,36           # 0x80004ff0

----------------
IN: 
0x0000000080004ff0:  300027f3          csrrs           a5,mstatus,zero

----------------
IN: 
0x0000000080004ff4:  7779              lui             a4,-8192
0x0000000080004ff6:  7ff70713          addi            a4,a4,2047
0x0000000080004ffa:  8ff9              and             a5,a5,a4
0x0000000080004ffc:  00b69713          slli            a4,a3,11

----------------
IN: 
0x0000000080005000:  8fd9              or              a5,a5,a4
0x0000000080005002:  f7f7f793          andi            a5,a5,-129
0x0000000080005006:  30079073          csrrw           zero,mstatus,a5

----------------
IN: 
0x000000008000500a:  34161073          csrrw           zero,mepc,a2

----------------
IN: 
0x000000008000500e:  4785              addi            a5,zero,1
0x0000000080005010:  00f68b63          beq             a3,a5,22        # 0x80005026

----------------
IN: 
0x0000000080005026:  10561073          csrrw           zero,stvec,a2

----------------
IN: 
0x000000008000502a:  14005073          csrrwi          zero,sscratch,0

----------------
IN: 
0x000000008000502e:  10405073          csrrwi          zero,sie,0

----------------
IN: 
0x0000000080005032:  18005073          csrrwi          zero,satp,0

----------------
IN: 
0x0000000080005036:  30200073          mret            

----------------
IN: 
0x0000000080200000:  00007297          auipc           t0,28672        # 0x80207000
0x0000000080200004:  00028293          mv              t0,t0
0x0000000080200008:  00a2b023          sd              a0,0(t0)
0x000000008020000c:  00007297          auipc           t0,28672        # 0x8020700c
0x0000000080200010:  ffc28293          addi            t0,t0,-4
0x0000000080200014:  00b2b023          sd              a1,0(t0)
0x0000000080200018:  c02062b7          lui             t0,-1071620096
0x000000008020001c:  ffd0031b          addiw           t1,zero,-3
0x0000000080200020:  037a              slli            t1,t1,30
0x0000000080200022:  406282b3          sub             t0,t0,t1
0x0000000080200026:  00c2d293          srli            t0,t0,12
0x000000008020002a:  fff0031b          addiw           t1,zero,-1
0x000000008020002e:  137e              slli            t1,t1,63
0x0000000080200030:  0062e2b3          or              t0,t0,t1
0x0000000080200034:  18029073          csrrw           zero,satp,t0

----------------
IN: 
0x0000000080200038:  0000              illegal         
0x000000008020003a:  0000              illegal         
0x000000008020003c:  0000              illegal         
0x000000008020003e:  0000              illegal         
0x0000000080200040:  0000              illegal         
0x0000000080200042:  0000              illegal         
0x0000000080200044:  0000              illegal         
0x0000000080200046:  0000              illegal         
0x0000000080200048:  0000              illegal         
0x000000008020004a:  0000              illegal         
0x000000008020004c:  0000              illegal         
0x000000008020004e:  0000              illegal         
0x0000000080200050:  0000              illegal         
0x0000000080200052:  0000              illegal         

----------------
IN: 
0xffffffffc0200054:  00007517          auipc           a0,28672        # 0xffffffffc0207054
0xffffffffc0200058:  fd450513          addi            a0,a0,-44
0xffffffffc020005c:  00007617          auipc           a2,28672        # 0xffffffffc020705c
0xffffffffc0200060:  44460613          addi            a2,a2,1092
0xffffffffc0200064:  1141              addi            sp,sp,-16
0xffffffffc0200066:  8e09              sub             a2,a2,a0
0xffffffffc0200068:  4581              mv              a1,zero
0xffffffffc020006a:  e406              sd              ra,8(sp)
0xffffffffc020006c:  74f010ef          jal             ra,8014         # 0xffffffffc0201fba

----------------
IN: 
0xffffffffc0201fba:  ca01              beqz            a2,16           # 0xffffffffc0201fca

----------------
IN: 
0xffffffffc0201fbc:  962a              add             a2,a2,a0
0xffffffffc0201fbe:  87aa              mv              a5,a0
0xffffffffc0201fc0:  0785              addi            a5,a5,1
0xffffffffc0201fc2:  feb78fa3          sb              a1,-1(a5)
0xffffffffc0201fc6:  fec79de3          bne             a5,a2,-6        # 0xffffffffc0201fc0

----------------
IN: 
0xffffffffc0201fc0:  0785              addi            a5,a5,1
0xffffffffc0201fc2:  feb78fa3          sb              a1,-1(a5)
0xffffffffc0201fc6:  fec79de3          bne             a5,a2,-6        # 0xffffffffc0201fc0

----------------
IN: 
0xffffffffc0201fca:  8082              ret             

----------------
IN: 
0xffffffffc0200070:  42c000ef          jal             ra,1068         # 0xffffffffc020049c

----------------
IN: 
0xffffffffc020049c:  7119              addi            sp,sp,-128
0xffffffffc020049e:  00002517          auipc           a0,8192         # 0xffffffffc020249e
0xffffffffc02004a2:  e4a50513          addi            a0,a0,-438
0xffffffffc02004a6:  fc86              sd              ra,120(sp)
0xffffffffc02004a8:  f8a2              sd              s0,112(sp)
0xffffffffc02004aa:  e8d2              sd              s4,80(sp)
0xffffffffc02004ac:  f4a6              sd              s1,104(sp)
0xffffffffc02004ae:  f0ca              sd              s2,96(sp)
0xffffffffc02004b0:  ecce              sd              s3,88(sp)
0xffffffffc02004b2:  e4d6              sd              s5,72(sp)
0xffffffffc02004b4:  e0da              sd              s6,64(sp)
0xffffffffc02004b6:  fc5e              sd              s7,56(sp)
0xffffffffc02004b8:  f862              sd              s8,48(sp)
0xffffffffc02004ba:  f466              sd              s9,40(sp)
0xffffffffc02004bc:  f06a              sd              s10,32(sp)
0xffffffffc02004be:  ec6e              sd              s11,24(sp)
0xffffffffc02004c0:  c37ff0ef          jal             ra,-970         # 0xffffffffc02000f6

----------------
IN: 
0xffffffffc02000f6:  711d              addi            sp,sp,-96
0xffffffffc02000f8:  02810313          addi            t1,sp,40
0xffffffffc02000fc:  8e2a              mv              t3,a0
0xffffffffc02000fe:  f42e              sd              a1,40(sp)
0xffffffffc0200100:  f832              sd              a2,48(sp)
0xffffffffc0200102:  fc36              sd              a3,56(sp)
0xffffffffc0200104:  00000517          auipc           a0,0            # 0xffffffffc0200104
0xffffffffc0200108:  fb850513          addi            a0,a0,-72
0xffffffffc020010c:  004c              addi            a1,sp,4
0xffffffffc020010e:  869a              mv              a3,t1
0xffffffffc0200110:  8672              mv              a2,t3
0xffffffffc0200112:  ec06              sd              ra,24(sp)
0xffffffffc0200114:  e0ba              sd              a4,64(sp)
0xffffffffc0200116:  e4be              sd              a5,72(sp)
0xffffffffc0200118:  e8c2              sd              a6,80(sp)
0xffffffffc020011a:  ecc6              sd              a7,88(sp)
0xffffffffc020011c:  e41a              sd              t1,8(sp)
0xffffffffc020011e:  c202              sw              zero,4(sp)
0xffffffffc0200120:  16b010ef          jal             ra,6506         # 0xffffffffc0201a8a

----------------
IN: 
0xffffffffc0201a8a:  7119              addi            sp,sp,-128
0xffffffffc0201a8c:  f4a6              sd              s1,104(sp)
0xffffffffc0201a8e:  f0ca              sd              s2,96(sp)
0xffffffffc0201a90:  ecce              sd              s3,88(sp)
0xffffffffc0201a92:  e8d2              sd              s4,80(sp)
0xffffffffc0201a94:  e4d6              sd              s5,72(sp)
0xffffffffc0201a96:  e0da              sd              s6,64(sp)
0xffffffffc0201a98:  fc5e              sd              s7,56(sp)
0xffffffffc0201a9a:  f06a              sd              s10,32(sp)
0xffffffffc0201a9c:  fc86              sd              ra,120(sp)
0xffffffffc0201a9e:  f8a2              sd              s0,112(sp)
0xffffffffc0201aa0:  f862              sd              s8,48(sp)
0xffffffffc0201aa2:  f466              sd              s9,40(sp)
0xffffffffc0201aa4:  ec6e              sd              s11,24(sp)
0xffffffffc0201aa6:  892a              mv              s2,a0
0xffffffffc0201aa8:  84ae              mv              s1,a1
0xffffffffc0201aaa:  8d32              mv              s10,a2
0xffffffffc0201aac:  8a36              mv              s4,a3
0xffffffffc0201aae:  02500993          addi            s3,zero,37
0xffffffffc0201ab2:  5b7d              addi            s6,zero,-1
0xffffffffc0201ab4:  00001a97          auipc           s5,4096         # 0xffffffffc0202ab4
0xffffffffc0201ab8:  410a8a93          addi            s5,s5,1040
0xffffffffc0201abc:  00001b97          auipc           s7,4096         # 0xffffffffc0202abc
0xffffffffc0201ac0:  5e4b8b93          addi            s7,s7,1508
0xffffffffc0201ac4:  000d4503          lbu             a0,0(s10)
0xffffffffc0201ac8:  001d0413          addi            s0,s10,1
0xffffffffc0201acc:  01350a63          beq             a0,s3,20        # 0xffffffffc0201ae0

----------------
IN: 
0xffffffffc0201ad0:  c121              beqz            a0,64           # 0xffffffffc0201b10

----------------
IN: 
0xffffffffc0201ad2:  85a6              mv              a1,s1
0xffffffffc0201ad4:  0405              addi            s0,s0,1
0xffffffffc0201ad6:  9902              jalr            ra,s2,0

----------------
IN: 
0xffffffffc02000bc:  1141              addi            sp,sp,-16
0xffffffffc02000be:  e022              sd              s0,0(sp)
0xffffffffc02000c0:  e406              sd              ra,8(sp)
0xffffffffc02000c2:  842e              mv              s0,a1
0xffffffffc02000c4:  3cc000ef          jal             ra,972          # 0xffffffffc0200490

----------------
IN: 
0xffffffffc0200490:  0ff57513          andi            a0,a0,255
0xffffffffc0200494:  22d0106f          j               6700            # 0xffffffffc0201ec0

----------------
IN: 
0xffffffffc0201ec0:  4781              mv              a5,zero
0xffffffffc0201ec2:  00005717          auipc           a4,20480        # 0xffffffffc0206ec2
0xffffffffc0201ec6:  15673703          ld              a4,342(a4)
0xffffffffc0201eca:  88ba              mv              a7,a4
0xffffffffc0201ecc:  852a              mv              a0,a0
0xffffffffc0201ece:  85be              mv              a1,a5
0xffffffffc0201ed0:  863e              mv              a2,a5
0xffffffffc0201ed2:  00000073          ecall           

----------------
IN: 
0x0000000080000470:  34021273          csrrw           tp,mscratch,tp

----------------
IN: 
0x0000000080000474:  04523023          sd              t0,64(tp)
0x0000000080000478:  300022f3          csrrs           t0,mstatus,zero

----------------
IN: 
0x000000008000047c:  00b2d293          srli            t0,t0,11
0x0000000080000480:  0032f293          andi            t0,t0,3
0x0000000080000484:  0032c293          xori            t0,t0,3
0x0000000080000488:  00028763          beqz            t0,14           # 0x80000496

----------------
IN: 
0x000000008000048c:  000102b3          add             t0,sp,zero
0x0000000080000490:  ef020113          addi            sp,tp,-272
0x0000000080000494:  a021              j               8               # 0x8000049c

----------------
IN: 
0x000000008000049c:  e816              sd              t0,16(sp)
0x000000008000049e:  04023283          ld              t0,64(tp)
0x00000000800004a2:  f416              sd              t0,40(sp)
0x00000000800004a4:  34021273          csrrw           tp,mscratch,tp

----------------
IN: 
0x00000000800004a8:  341022f3          csrrs           t0,mepc,zero

----------------
IN: 
0x00000000800004ac:  e216              sd              t0,256(sp)
0x00000000800004ae:  300022f3          csrrs           t0,mstatus,zero

----------------
IN: 
0x00000000800004b2:  e616              sd              t0,264(sp)
0x00000000800004b4:  e002              sd              zero,0(sp)
0x00000000800004b6:  e406              sd              ra,8(sp)
0x00000000800004b8:  ec0e              sd              gp,24(sp)
0x00000000800004ba:  f012              sd              tp,32(sp)
0x00000000800004bc:  f81a              sd              t1,48(sp)
0x00000000800004be:  fc1e              sd              t2,56(sp)
0x00000000800004c0:  e0a2              sd              s0,64(sp)
0x00000000800004c2:  e4a6              sd              s1,72(sp)
0x00000000800004c4:  e8aa              sd              a0,80(sp)
0x00000000800004c6:  ecae              sd              a1,88(sp)
0x00000000800004c8:  f0b2              sd              a2,96(sp)
0x00000000800004ca:  f4b6              sd              a3,104(sp)
0x00000000800004cc:  f8ba              sd              a4,112(sp)
0x00000000800004ce:  fcbe              sd              a5,120(sp)
0x00000000800004d0:  e142              sd              a6,128(sp)
0x00000000800004d2:  e546              sd              a7,136(sp)
0x00000000800004d4:  e94a              sd              s2,144(sp)
0x00000000800004d6:  ed4e              sd              s3,152(sp)
0x00000000800004d8:  f152              sd              s4,160(sp)
0x00000000800004da:  f556              sd              s5,168(sp)
0x00000000800004dc:  f95a              sd              s6,176(sp)
0x00000000800004de:  fd5e              sd              s7,184(sp)
0x00000000800004e0:  e1e2              sd              s8,192(sp)
0x00000000800004e2:  e5e6              sd              s9,200(sp)
0x00000000800004e4:  e9ea              sd              s10,208(sp)
0x00000000800004e6:  edee              sd              s11,216(sp)
0x00000000800004e8:  f1f2              sd              t3,224(sp)
0x00000000800004ea:  f5f6              sd              t4,232(sp)
0x00000000800004ec:  f9fa              sd              t5,240(sp)
0x00000000800004ee:  fdfe              sd              t6,248(sp)
0x00000000800004f0:  00010533          add             a0,sp,zero
0x00000000800004f4:  340025f3          csrrs           a1,mscratch,zero

----------------
IN: 
0x00000000800004f8:  003010ef          jal             ra,6146         # 0x80001cfa

----------------
IN: 
0x0000000080001cfa:  7139              addi            sp,sp,-64
0x0000000080001cfc:  f822              sd              s0,48(sp)
0x0000000080001cfe:  f426              sd              s1,40(sp)
0x0000000080001d00:  e852              sd              s4,16(sp)
0x0000000080001d02:  e456              sd              s5,8(sp)
0x0000000080001d04:  fc06              sd              ra,56(sp)
0x0000000080001d06:  f04a              sd              s2,32(sp)
0x0000000080001d08:  ec4e              sd              s3,24(sp)
0x0000000080001d0a:  e05a              sd              s6,0(sp)
0x0000000080001d0c:  0080              addi            s0,sp,64
0x0000000080001d0e:  84aa              mv              s1,a0
0x0000000080001d10:  8a2e              mv              s4,a1
0x0000000080001d12:  473020ef          jal             ra,11378        # 0x80004984

----------------
IN: 
0x0000000080001d16:  00050a9b          sext.w          s5,a0
0x0000000080001d1a:  34202973          csrrs           s2,mcause,zero

----------------
IN: 
0x0000000080001d1e:  34302b73          csrrs           s6,mtval,zero

----------------
IN: 
0x0000000080001d22:  02094063          bltz            s2,32           # 0x80001d42

----------------
IN: 
0x0000000080001d26:  47bd              addi            a5,zero,15
0x0000000080001d28:  89ca              mv              s3,s2
0x0000000080001d2a:  5d27e5e3          bgtu            s2,a5,3530      # 0x80002af4

----------------
IN: 
0x0000000080001d2e:  00007697          auipc           a3,28672        # 0x80008d2e
0x0000000080001d32:  5a268693          addi            a3,a3,1442
0x0000000080001d36:  00291713          slli            a4,s2,2
0x0000000080001d3a:  9736              add             a4,a4,a3
0x0000000080001d3c:  431c              lw              a5,0(a4)
0x0000000080001d3e:  97b6              add             a5,a5,a3
0x0000000080001d40:  8782              jr              a5

----------------
IN: 
0x0000000080002900:  86d2              mv              a3,s4
0x0000000080002902:  8626              mv              a2,s1
0x0000000080002904:  85ca              mv              a1,s2
0x0000000080002906:  8556              mv              a0,s5
0x0000000080002908:  0af010ef          jal             ra,6318         # 0x800041b6

----------------
IN: 
0x00000000800041b6:  711d              addi            sp,sp,-96
0x00000000800041b8:  e8a2              sd              s0,80(sp)
0x00000000800041ba:  e4a6              sd              s1,72(sp)
0x00000000800041bc:  ec86              sd              ra,88(sp)
0x00000000800041be:  e0ca              sd              s2,64(sp)
0x00000000800041c0:  1080              addi            s0,sp,96
0x00000000800041c2:  84b2              mv              s1,a2
0x00000000800041c4:  08964703          lbu             a4,137(a2)
0x00000000800041c8:  08a4c783          lbu             a5,138(s1)
0x00000000800041cc:  08864603          lbu             a2,136(a2)
0x00000000800041d0:  08b4c503          lbu             a0,139(s1)
0x00000000800041d4:  0722              slli            a4,a4,8
0x00000000800041d6:  08c4c583          lbu             a1,140(s1)
0x00000000800041da:  8f51              or              a4,a4,a2
0x00000000800041dc:  07c2              slli            a5,a5,16
0x00000000800041de:  08d4c603          lbu             a2,141(s1)
0x00000000800041e2:  8fd9              or              a5,a5,a4
0x00000000800041e4:  0562              slli            a0,a0,24
0x00000000800041e6:  08e4c703          lbu             a4,142(s1)
0x00000000800041ea:  8d5d              or              a0,a0,a5
0x00000000800041ec:  1582              slli            a1,a1,32
0x00000000800041ee:  08f4c783          lbu             a5,143(s1)
0x00000000800041f2:  8dc9              or              a1,a1,a0
0x00000000800041f4:  1622              slli            a2,a2,40
0x00000000800041f6:  8e4d              or              a2,a2,a1
0x00000000800041f8:  1742              slli            a4,a4,48
0x00000000800041fa:  8f51              or              a4,a4,a2
0x00000000800041fc:  17e2              slli            a5,a5,56
0x00000000800041fe:  8fd9              or              a5,a5,a4
0x0000000080004200:  4721              addi            a4,zero,8
0x0000000080004202:  40f76b63          bgtu            a5,a4,1046      # 0x80004618

----------------
IN: 
0x0000000080004206:  00005717          auipc           a4,20480        # 0x80009206
0x000000008000420a:  4d270713          addi            a4,a4,1234
0x000000008000420e:  078a              slli            a5,a5,2
0x0000000080004210:  97ba              add             a5,a5,a4
0x0000000080004212:  439c              lw              a5,0(a5)
0x0000000080004214:  8936              mv              s2,a3
0x0000000080004216:  97ba              add             a5,a5,a4
0x0000000080004218:  8782              jr              a5

----------------
IN: 
0x00000000800045cc:  0504c503          lbu             a0,80(s1)
0x00000000800045d0:  948ff0ef          jal             ra,-3768        # 0x80003718

----------------
IN: 
0x00000000800045d4:  bbf1              j               -548            # 0x800043b0

----------------
IN: 
0x00000000800043b0:  1014c783          lbu             a5,257(s1)
0x00000000800043b4:  1004c703          lbu             a4,256(s1)
0x00000000800043b8:  1024c503          lbu             a0,258(s1)
0x00000000800043bc:  1034c583          lbu             a1,259(s1)
0x00000000800043c0:  1044c603          lbu             a2,260(s1)
0x00000000800043c4:  07a2              slli            a5,a5,8
0x00000000800043c6:  1054c683          lbu             a3,261(s1)
0x00000000800043ca:  8fd9              or              a5,a5,a4
0x00000000800043cc:  0542              slli            a0,a0,16
0x00000000800043ce:  1064c703          lbu             a4,262(s1)
0x00000000800043d2:  8d5d              or              a0,a0,a5
0x00000000800043d4:  05e2              slli            a1,a1,24
0x00000000800043d6:  1074c783          lbu             a5,263(s1)
0x00000000800043da:  8dc9              or              a1,a1,a0
0x00000000800043dc:  1602              slli            a2,a2,32
0x00000000800043de:  8e4d              or              a2,a2,a1
0x00000000800043e0:  16a2              slli            a3,a3,40
0x00000000800043e2:  8ed1              or              a3,a3,a2
0x00000000800043e4:  1742              slli            a4,a4,48
0x00000000800043e6:  8f55              or              a4,a4,a3
0x00000000800043e8:  17e2              slli            a5,a5,56
0x00000000800043ea:  8fd9              or              a5,a5,a4
0x00000000800043ec:  0791              addi            a5,a5,4
0x00000000800043ee:  0187d51b          srliw           a0,a5,24
0x00000000800043f2:  0087d893          srli            a7,a5,8
0x00000000800043f6:  0107d813          srli            a6,a5,16
0x00000000800043fa:  0207d593          srli            a1,a5,32
0x00000000800043fe:  0287d613          srli            a2,a5,40
0x0000000080004402:  0307d693          srli            a3,a5,48
0x0000000080004406:  0387d713          srli            a4,a5,56
0x000000008000440a:  10a481a3          sb              a0,259(s1)
0x000000008000440e:  10f48023          sb              a5,256(s1)
0x0000000080004412:  111480a3          sb              a7,257(s1)
0x0000000080004416:  11048123          sb              a6,258(s1)
0x000000008000441a:  10b48223          sb              a1,260(s1)
0x000000008000441e:  10c482a3          sb              a2,261(s1)
0x0000000080004422:  10d48323          sb              a3,262(s1)
0x0000000080004426:  10e483a3          sb              a4,263(s1)
0x000000008000442a:  60e6              ld              ra,88(sp)
0x000000008000442c:  6446              ld              s0,80(sp)
0x000000008000442e:  64a6              ld              s1,72(sp)
0x0000000080004430:  6906              ld              s2,64(sp)
0x0000000080004432:  4501              mv              a0,zero
0x0000000080004434:  6125              addi            sp,sp,96
0x0000000080004436:  8082              ret             

----------------
IN: 
0x000000008000290c:  00007697          auipc           a3,28672        # 0x8000990c
0x0000000080002910:  a1468693          addi            a3,a3,-1516
0x0000000080002914:  c4050563          beqz            a0,-2998        # 0x80001d5e

----------------
IN: 
0x0000000080001d5e:  70e2              ld              ra,56(sp)
0x0000000080001d60:  7442              ld              s0,48(sp)
0x0000000080001d62:  74a2              ld              s1,40(sp)
0x0000000080001d64:  7902              ld              s2,32(sp)
0x0000000080001d66:  69e2              ld              s3,24(sp)
0x0000000080001d68:  6a42              ld              s4,16(sp)
0x0000000080001d6a:  6aa2              ld              s5,8(sp)
0x0000000080001d6c:  6b02              ld              s6,0(sp)
0x0000000080001d6e:  6121              addi            sp,sp,64
0x0000000080001d70:  8082              ret             

----------------
IN: 
0x00000000800004fc:  60a2              ld              ra,8(sp)
0x00000000800004fe:  61e2              ld              gp,24(sp)
0x0000000080000500:  7202              ld              tp,32(sp)
0x0000000080000502:  7342              ld              t1,48(sp)
0x0000000080000504:  73e2              ld              t2,56(sp)
0x0000000080000506:  6406              ld              s0,64(sp)
0x0000000080000508:  64a6              ld              s1,72(sp)
0x000000008000050a:  6546              ld              a0,80(sp)
0x000000008000050c:  65e6              ld              a1,88(sp)
0x000000008000050e:  7606              ld              a2,96(sp)
0x0000000080000510:  76a6              ld              a3,104(sp)
0x0000000080000512:  7746              ld              a4,112(sp)
0x0000000080000514:  77e6              ld              a5,120(sp)
0x0000000080000516:  680a              ld              a6,128(sp)
0x0000000080000518:  68aa              ld              a7,136(sp)
0x000000008000051a:  694a              ld              s2,144(sp)
0x000000008000051c:  69ea              ld              s3,152(sp)
0x000000008000051e:  7a0a              ld              s4,160(sp)
0x0000000080000520:  7aaa              ld              s5,168(sp)
0x0000000080000522:  7b4a              ld              s6,176(sp)
0x0000000080000524:  7bea              ld              s7,184(sp)
0x0000000080000526:  6c0e              ld              s8,192(sp)
0x0000000080000528:  6cae              ld              s9,200(sp)
0x000000008000052a:  6d4e              ld              s10,208(sp)
0x000000008000052c:  6dee              ld              s11,216(sp)
0x000000008000052e:  7e0e              ld              t3,224(sp)
0x0000000080000530:  7eae              ld              t4,232(sp)
0x0000000080000532:  7f4e              ld              t5,240(sp)
0x0000000080000534:  7fee              ld              t6,248(sp)
0x0000000080000536:  6292              ld              t0,256(sp)
0x0000000080000538:  34129073          csrrw           zero,mepc,t0

----------------
IN: 
0x000000008000053c:  62b2              ld              t0,264(sp)
0x000000008000053e:  30029073          csrrw           zero,mstatus,t0

----------------
IN: 
0x0000000080000542:  72a2              ld              t0,40(sp)
0x0000000080000544:  6142              ld              sp,16(sp)
0x0000000080000546:  30200073          mret            

----------------
IN: 
0xffffffffc0201ed6:  87aa              mv              a5,a0
0xffffffffc0201ed8:  8082              ret             

----------------
IN: 
0xffffffffc02000c8:  401c              lw              a5,0(s0)
0xffffffffc02000ca:  60a2              ld              ra,8(sp)
0xffffffffc02000cc:  2785              addiw           a5,a5,1
0xffffffffc02000ce:  c01c              sw              a5,0(s0)
0xffffffffc02000d0:  6402              ld              s0,0(sp)
0xffffffffc02000d2:  0141              addi            sp,sp,16
0xffffffffc02000d4:  8082              ret             

----------------
IN: 
0xffffffffc0201ad8:  fff44503          lbu             a0,-1(s0)
0xffffffffc0201adc:  ff351ae3          bne             a0,s3,-12       # 0xffffffffc0201ad0

----------------
IN: 
0xffffffffc0201b10:  70e6              ld              ra,120(sp)
0xffffffffc0201b12:  7446              ld              s0,112(sp)
0xffffffffc0201b14:  74a6              ld              s1,104(sp)
0xffffffffc0201b16:  7906              ld              s2,96(sp)
0xffffffffc0201b18:  69e6              ld              s3,88(sp)
0xffffffffc0201b1a:  6a46              ld              s4,80(sp)
0xffffffffc0201b1c:  6aa6              ld              s5,72(sp)
0xffffffffc0201b1e:  6b06              ld              s6,64(sp)
0xffffffffc0201b20:  7be2              ld              s7,56(sp)
0xffffffffc0201b22:  7c42              ld              s8,48(sp)
0xffffffffc0201b24:  7ca2              ld              s9,40(sp)
0xffffffffc0201b26:  7d02              ld              s10,32(sp)
0xffffffffc0201b28:  6de2              ld              s11,24(sp)
0xffffffffc0201b2a:  6109              addi            sp,sp,128
0xffffffffc0201b2c:  8082              ret             

----------------
IN: 
0xffffffffc0200124:  60e2              ld              ra,24(sp)
0xffffffffc0200126:  4512              lw              a0,4(sp)
0xffffffffc0200128:  6125              addi            sp,sp,96
0xffffffffc020012a:  8082              ret             

----------------
IN: 
0xffffffffc02004c4:  00007597          auipc           a1,28672        # 0xffffffffc02074c4
0xffffffffc02004c8:  b3c5b583          ld              a1,-1220(a1)
0xffffffffc02004cc:  00002517          auipc           a0,8192         # 0xffffffffc02024cc
0xffffffffc02004d0:  e2c50513          addi            a0,a0,-468
0xffffffffc02004d4:  c23ff0ef          jal             ra,-990         # 0xffffffffc02000f6

----------------
IN: 
0xffffffffc0201ae0:  00044603          lbu             a2,0(s0)
0xffffffffc0201ae4:  02000793          addi            a5,zero,32
0xffffffffc0201ae8:  4c81              mv              s9,zero
0xffffffffc0201aea:  4881              mv              a7,zero
0xffffffffc0201aec:  5c7d              addi            s8,zero,-1
0xffffffffc0201aee:  5dfd              addi            s11,zero,-1
0xffffffffc0201af0:  05500513          addi            a0,zero,85
0xffffffffc0201af4:  4825              addi            a6,zero,9
0xffffffffc0201af6:  fdd6059b          addiw           a1,a2,-35
0xffffffffc0201afa:  0ff5f593          andi            a1,a1,255
0xffffffffc0201afe:  00140d13          addi            s10,s0,1
0xffffffffc0201b02:  04b56263          bgtu            a1,a0,68        # 0xffffffffc0201b46

----------------
IN: 
0xffffffffc0201b06:  058a              slli            a1,a1,2
0xffffffffc0201b08:  95d6              add             a1,a1,s5
0xffffffffc0201b0a:  4194              lw              a3,0(a1)
0xffffffffc0201b0c:  96d6              add             a3,a3,s5
0xffffffffc0201b0e:  8682              jr              a3

----------------
IN: 
0xffffffffc0201c26:  00144603          lbu             a2,1(s0)
0xffffffffc0201c2a:  2885              addiw           a7,a7,1
0xffffffffc0201c2c:  846a              mv              s0,s10
0xffffffffc0201c2e:  b5e1              j               -312            # 0xffffffffc0201af6

----------------
IN: 
0xffffffffc0201af6:  fdd6059b          addiw           a1,a2,-35
0xffffffffc0201afa:  0ff5f593          andi            a1,a1,255
0xffffffffc0201afe:  00140d13          addi            s10,s0,1
0xffffffffc0201b02:  04b56263          bgtu            a1,a0,68        # 0xffffffffc0201b46

----------------
IN: 
0xffffffffc0201cd2:  4705              addi            a4,zero,1
0xffffffffc0201cd4:  008a0c93          addi            s9,s4,8
0xffffffffc0201cd8:  01174463          bgt             a7,a4,8         # 0xffffffffc0201ce0

----------------
IN: 
0xffffffffc0201cdc:  08088d63          beqz            a7,154          # 0xffffffffc0201d76

----------------
IN: 
0xffffffffc0201ce0:  000a3403          ld              s0,0(s4)
0xffffffffc0201ce4:  0a044d63          bltz            s0,186          # 0xffffffffc0201d9e

----------------
IN: 
0xffffffffc0201ce8:  8622              mv              a2,s0
0xffffffffc0201cea:  8a66              mv              s4,s9
0xffffffffc0201cec:  46a9              addi            a3,zero,10
0xffffffffc0201cee:  bdcd              j               -270            # 0xffffffffc0201be0

----------------
IN: 
0xffffffffc0201be0:  2781              sext.w          a5,a5
0xffffffffc0201be2:  876e              mv              a4,s11
0xffffffffc0201be4:  85a6              mv              a1,s1
0xffffffffc0201be6:  854a              mv              a0,s2
0xffffffffc0201be8:  e37ff0ef          jal             ra,-458         # 0xffffffffc0201a1e

----------------
IN: 
0xffffffffc0201a1e:  02069813          slli            a6,a3,32
0xffffffffc0201a22:  7179              addi            sp,sp,-48
0xffffffffc0201a24:  02085813          srli            a6,a6,32
0xffffffffc0201a28:  e052              sd              s4,0(sp)
0xffffffffc0201a2a:  03067a33          remu            s4,a2,a6
0xffffffffc0201a2e:  f022              sd              s0,32(sp)
0xffffffffc0201a30:  ec26              sd              s1,24(sp)
0xffffffffc0201a32:  e84a              sd              s2,16(sp)
0xffffffffc0201a34:  f406              sd              ra,40(sp)
0xffffffffc0201a36:  e44e              sd              s3,8(sp)
0xffffffffc0201a38:  84aa              mv              s1,a0
0xffffffffc0201a3a:  892e              mv              s2,a1
0xffffffffc0201a3c:  fff7041b          addiw           s0,a4,-1
0xffffffffc0201a40:  2a01              sext.w          s4,s4
0xffffffffc0201a42:  03067e63          bleu            a6,a2,60        # 0xffffffffc0201a7e

----------------
IN: 
0xffffffffc0201a46:  89be              mv              s3,a5
0xffffffffc0201a48:  00805763          blez            s0,14           # 0xffffffffc0201a56

----------------
IN: 
0xffffffffc0201a56:  1a02              slli            s4,s4,32
0xffffffffc0201a58:  00001797          auipc           a5,4096         # 0xffffffffc0202a58
0xffffffffc0201a5c:  43878793          addi            a5,a5,1080
0xffffffffc0201a60:  020a5a13          srli            s4,s4,32
0xffffffffc0201a64:  9a3e              add             s4,s4,a5
0xffffffffc0201a66:  7402              ld              s0,32(sp)
0xffffffffc0201a68:  000a4503          lbu             a0,0(s4)
0xffffffffc0201a6c:  70a2              ld              ra,40(sp)
0xffffffffc0201a6e:  69a2              ld              s3,8(sp)
0xffffffffc0201a70:  6a02              ld              s4,0(sp)
0xffffffffc0201a72:  85ca              mv              a1,s2
0xffffffffc0201a74:  87a6              mv              a5,s1
0xffffffffc0201a76:  6942              ld              s2,16(sp)
0xffffffffc0201a78:  64e2              ld              s1,24(sp)
0xffffffffc0201a7a:  6145              addi            sp,sp,48
0xffffffffc0201a7c:  8782              jr              a5

----------------
IN: 
0xffffffffc0201bec:  bde1              j               -296            # 0xffffffffc0201ac4

----------------
IN: 
0xffffffffc0201ac4:  000d4503          lbu             a0,0(s10)
0xffffffffc0201ac8:  001d0413          addi            s0,s10,1
0xffffffffc0201acc:  01350a63          beq             a0,s3,20        # 0xffffffffc0201ae0

----------------
IN: 
0xffffffffc02004d8:  00007417          auipc           s0,28672        # 0xffffffffc02074d8
0xffffffffc02004dc:  b3040413          addi            s0,s0,-1232
0xffffffffc02004e0:  600c              ld              a1,0(s0)
0xffffffffc02004e2:  00002517          auipc           a0,8192         # 0xffffffffc02024e2
0xffffffffc02004e6:  e2650513          addi            a0,a0,-474
0xffffffffc02004ea:  c0dff0ef          jal             ra,-1012        # 0xffffffffc02000f6

----------------
IN: 
0xffffffffc0201bca:  4705              addi            a4,zero,1
0xffffffffc0201bcc:  008a0593          addi            a1,s4,8
0xffffffffc0201bd0:  01174463          bgt             a7,a4,8         # 0xffffffffc0201bd8

----------------
IN: 
0xffffffffc0201bd4:  1a088e63          beqz            a7,444          # 0xffffffffc0201d90

----------------
IN: 
0xffffffffc0201bd8:  000a3603          ld              a2,0(s4)
0xffffffffc0201bdc:  46c1              addi            a3,zero,16
0xffffffffc0201bde:  8a2e              mv              s4,a1
0xffffffffc0201be0:  2781              sext.w          a5,a5
0xffffffffc0201be2:  876e              mv              a4,s11
0xffffffffc0201be4:  85a6              mv              a1,s1
0xffffffffc0201be6:  854a              mv              a0,s2
0xffffffffc0201be8:  e37ff0ef          jal             ra,-458         # 0xffffffffc0201a1e

----------------
IN: 
0xffffffffc0201a7e:  03065633          divu            a2,a2,a6
0xffffffffc0201a82:  8722              mv              a4,s0
0xffffffffc0201a84:  f9bff0ef          jal             ra,-102         # 0xffffffffc0201a1e

----------------
IN: 
0xffffffffc0201a88:  b7f9              j               -50             # 0xffffffffc0201a56

----------------
IN: 
0xffffffffc02004ee:  00043a03          ld              s4,0(s0)
0xffffffffc02004f2:  00002517          auipc           a0,8192         # 0xffffffffc02024f2
0xffffffffc02004f6:  e2e50513          addi            a0,a0,-466
0xffffffffc02004fa:  120a0463          beqz            s4,296          # 0xffffffffc0200622

----------------
IN: 
0xffffffffc02004fe:  57f5              addi            a5,zero,-3
0xffffffffc0200500:  07fa              slli            a5,a5,30
0xffffffffc0200502:  00fa0733          add             a4,s4,a5
0xffffffffc0200506:  431c              lw              a5,0(a4)
0xffffffffc0200508:  00ff0637          lui             a2,16711680
0xffffffffc020050c:  6b41              lui             s6,65536
0xffffffffc020050e:  0087d59b          srliw           a1,a5,8
0xffffffffc0200512:  0187969b          slliw           a3,a5,24
0xffffffffc0200516:  0187d51b          srliw           a0,a5,24
0xffffffffc020051a:  0105959b          slliw           a1,a1,16
0xffffffffc020051e:  0107d79b          srliw           a5,a5,16
0xffffffffc0200522:  8df1              and             a1,a1,a2
0xffffffffc0200524:  8ec9              or              a3,a3,a0
0xffffffffc0200526:  0087979b          slliw           a5,a5,8
0xffffffffc020052a:  1b7d              addi            s6,s6,-1
0xffffffffc020052c:  0167f7b3          and             a5,a5,s6
0xffffffffc0200530:  8dd5              or              a1,a1,a3
0xffffffffc0200532:  8ddd              or              a1,a1,a5
0xffffffffc0200534:  d00e07b7          lui             a5,-804388864
0xffffffffc0200538:  2581              sext.w          a1,a1
0xffffffffc020053a:  eed78793          addi            a5,a5,-275
0xffffffffc020053e:  10f59163          bne             a1,a5,258       # 0xffffffffc0200640

----------------
IN: 
0xffffffffc0200542:  471c              lw              a5,8(a4)
0xffffffffc0200544:  4754              lw              a3,12(a4)
0xffffffffc0200546:  4c81              mv              s9,zero
0xffffffffc0200548:  0087d59b          srliw           a1,a5,8
0xffffffffc020054c:  0086d51b          srliw           a0,a3,8
0xffffffffc0200550:  0186941b          slliw           s0,a3,24
0xffffffffc0200554:  0186d89b          srliw           a7,a3,24
0xffffffffc0200558:  01879a1b          slliw           s4,a5,24
0xffffffffc020055c:  0187d81b          srliw           a6,a5,24
0xffffffffc0200560:  0105151b          slliw           a0,a0,16
0xffffffffc0200564:  0106d69b          srliw           a3,a3,16
0xffffffffc0200568:  0105959b          slliw           a1,a1,16
0xffffffffc020056c:  0107d79b          srliw           a5,a5,16
0xffffffffc0200570:  8d71              and             a0,a0,a2
0xffffffffc0200572:  01146433          or              s0,s0,a7
0xffffffffc0200576:  0086969b          slliw           a3,a3,8
0xffffffffc020057a:  010a6a33          or              s4,s4,a6
0xffffffffc020057e:  8e6d              and             a2,a2,a1
0xffffffffc0200580:  0087979b          slliw           a5,a5,8
0xffffffffc0200584:  8c49              or              s0,s0,a0
0xffffffffc0200586:  0166f6b3          and             a3,a3,s6
0xffffffffc020058a:  00ca6a33          or              s4,s4,a2
0xffffffffc020058e:  0167f7b3          and             a5,a5,s6
0xffffffffc0200592:  8c55              or              s0,s0,a3
0xffffffffc0200594:  00fa6a33          or              s4,s4,a5
0xffffffffc0200598:  1402              slli            s0,s0,32
0xffffffffc020059a:  1a02              slli            s4,s4,32
0xffffffffc020059c:  9001              srli            s0,s0,32
0xffffffffc020059e:  020a5a13          srli            s4,s4,32
0xffffffffc02005a2:  943a              add             s0,s0,a4
0xffffffffc02005a4:  9a3a              add             s4,s4,a4
0xffffffffc02005a6:  00ff0c37          lui             s8,16711680
0xffffffffc02005aa:  4b8d              addi            s7,zero,3
0xffffffffc02005ac:  00002917          auipc           s2,8192         # 0xffffffffc02025ac
0xffffffffc02005b0:  dc490913          addi            s2,s2,-572
0xffffffffc02005b4:  49bd              addi            s3,zero,15
0xffffffffc02005b6:  4d91              addi            s11,zero,4
0xffffffffc02005b8:  4d05              addi            s10,zero,1
0xffffffffc02005ba:  00002497          auipc           s1,8192         # 0xffffffffc02025ba
0xffffffffc02005be:  dae48493          addi            s1,s1,-594
0xffffffffc02005c2:  000a2703          lw              a4,0(s4)
0xffffffffc02005c6:  004a0a93          addi            s5,s4,4
0xffffffffc02005ca:  0087569b          srliw           a3,a4,8
0xffffffffc02005ce:  0187179b          slliw           a5,a4,24
0xffffffffc02005d2:  0187561b          srliw           a2,a4,24
0xffffffffc02005d6:  0106969b          slliw           a3,a3,16
0xffffffffc02005da:  0107571b          srliw           a4,a4,16
0xffffffffc02005de:  8fd1              or              a5,a5,a2
0xffffffffc02005e0:  0186f6b3          and             a3,a3,s8
0xffffffffc02005e4:  0087171b          slliw           a4,a4,8
0xffffffffc02005e8:  8fd5              or              a5,a5,a3
0xffffffffc02005ea:  00eb7733          and             a4,s6,a4
0xffffffffc02005ee:  8fd9              or              a5,a5,a4
0xffffffffc02005f0:  2781              sext.w          a5,a5
0xffffffffc02005f2:  09778c63          beq             a5,s7,152       # 0xffffffffc020068a

----------------
IN: 
0xffffffffc02005f6:  00fbea63          bgtu            a5,s7,20        # 0xffffffffc020060a

----------------
IN: 
0xffffffffc02005fa:  07a78663          beq             a5,s10,108      # 0xffffffffc0200666

----------------
IN: 
0xffffffffc0200666:  8556              mv              a0,s5
0xffffffffc0200668:  0c3010ef          jal             ra,6338         # 0xffffffffc0201f2a

----------------
IN: 
0xffffffffc0201f2a:  00054783          lbu             a5,0(a0)
0xffffffffc0201f2e:  872a              mv              a4,a0
0xffffffffc0201f30:  4501              mv              a0,zero
0xffffffffc0201f32:  cb81              beqz            a5,16           # 0xffffffffc0201f42

----------------
IN: 
0xffffffffc0201f42:  8082              ret             

----------------
IN: 
0xffffffffc020066c:  8a2a              mv              s4,a0
0xffffffffc020066e:  4619              addi            a2,zero,6
0xffffffffc0200670:  85a6              mv              a1,s1
0xffffffffc0200672:  8556              mv              a0,s5
0xffffffffc0200674:  2a01              sext.w          s4,s4
0xffffffffc0200676:  109010ef          jal             ra,6408         # 0xffffffffc0201f7e

----------------
IN: 
0xffffffffc0201f7e:  c20d              beqz            a2,34           # 0xffffffffc0201fa0

----------------
IN: 
0xffffffffc0201f80:  962e              add             a2,a2,a1
0xffffffffc0201f82:  a031              j               12              # 0xffffffffc0201f8e

----------------
IN: 
0xffffffffc0201f8e:  00054783          lbu             a5,0(a0)
0xffffffffc0201f92:  0585              addi            a1,a1,1
0xffffffffc0201f94:  fff5c703          lbu             a4,-1(a1)
0xffffffffc0201f98:  f7f5              bnez            a5,-20          # 0xffffffffc0201f84

----------------
IN: 
0xffffffffc0201f9a:  40e7853b          subw            a0,a5,a4
0xffffffffc0201f9e:  8082              ret             

----------------
IN: 
0xffffffffc020067a:  e111              bnez            a0,4            # 0xffffffffc020067e

----------------
IN: 
0xffffffffc020067e:  0a91              addi            s5,s5,4
0xffffffffc0200680:  9ad2              add             s5,s5,s4
0xffffffffc0200682:  ffcafa93          andi            s5,s5,-4
0xffffffffc0200686:  8a56              mv              s4,s5
0xffffffffc0200688:  bf2d              j               -198            # 0xffffffffc02005c2

----------------
IN: 
0xffffffffc02005c2:  000a2703          lw              a4,0(s4)
0xffffffffc02005c6:  004a0a93          addi            s5,s4,4
0xffffffffc02005ca:  0087569b          srliw           a3,a4,8
0xffffffffc02005ce:  0187179b          slliw           a5,a4,24
0xffffffffc02005d2:  0187561b          srliw           a2,a4,24
0xffffffffc02005d6:  0106969b          slliw           a3,a3,16
0xffffffffc02005da:  0107571b          srliw           a4,a4,16
0xffffffffc02005de:  8fd1              or              a5,a5,a2
0xffffffffc02005e0:  0186f6b3          and             a3,a3,s8
0xffffffffc02005e4:  0087171b          slliw           a4,a4,8
0xffffffffc02005e8:  8fd5              or              a5,a5,a3
0xffffffffc02005ea:  00eb7733          and             a4,s6,a4
0xffffffffc02005ee:  8fd9              or              a5,a5,a4
0xffffffffc02005f0:  2781              sext.w          a5,a5
0xffffffffc02005f2:  09778c63          beq             a5,s7,152       # 0xffffffffc020068a

----------------
IN: 
0xffffffffc020068a:  004a2783          lw              a5,4(s4)
0xffffffffc020068e:  00ca0693          addi            a3,s4,12
0xffffffffc0200692:  0087d71b          srliw           a4,a5,8
0xffffffffc0200696:  01879a9b          slliw           s5,a5,24
0xffffffffc020069a:  0187d61b          srliw           a2,a5,24
0xffffffffc020069e:  0107171b          slliw           a4,a4,16
0xffffffffc02006a2:  0107d79b          srliw           a5,a5,16
0xffffffffc02006a6:  00caeab3          or              s5,s5,a2
0xffffffffc02006aa:  01877733          and             a4,a4,s8
0xffffffffc02006ae:  0087979b          slliw           a5,a5,8
0xffffffffc02006b2:  00eaeab3          or              s5,s5,a4
0xffffffffc02006b6:  00fb77b3          and             a5,s6,a5
0xffffffffc02006ba:  00faeab3          or              s5,s5,a5
0xffffffffc02006be:  2a81              sext.w          s5,s5
0xffffffffc02006c0:  000c9c63          bnez            s9,24           # 0xffffffffc02006d8

----------------
IN: 
0xffffffffc02006c4:  1a82              slli            s5,s5,32
0xffffffffc02006c6:  00368793          addi            a5,a3,3
0xffffffffc02006ca:  020ada93          srli            s5,s5,32
0xffffffffc02006ce:  9abe              add             s5,s5,a5
0xffffffffc02006d0:  ffcafa93          andi            s5,s5,-4
0xffffffffc02006d4:  8a56              mv              s4,s5
0xffffffffc02006d6:  b5f5              j               -276            # 0xffffffffc02005c2

----------------
IN: 
0xffffffffc0201f34:  0505              addi            a0,a0,1
0xffffffffc0201f36:  00a707b3          add             a5,a4,a0
0xffffffffc0201f3a:  0007c783          lbu             a5,0(a5)
0xffffffffc0201f3e:  fbfd              bnez            a5,-10          # 0xffffffffc0201f34

----------------
IN: 
0xffffffffc0201f40:  8082              ret             

----------------
IN: 
0xffffffffc0201f84:  0505              addi            a0,a0,1
0xffffffffc0201f86:  00e79a63          bne             a5,a4,20        # 0xffffffffc0201f9a

----------------
IN: 
0xffffffffc02005fe:  4709              addi            a4,zero,2
0xffffffffc0200600:  00e79763          bne             a5,a4,14        # 0xffffffffc020060e

----------------
IN: 
0xffffffffc0200604:  4c81              mv              s9,zero
0xffffffffc0200606:  8a56              mv              s4,s5
0xffffffffc0200608:  bf6d              j               -70             # 0xffffffffc02005c2

----------------
IN: 
0xffffffffc0201f8a:  00b60b63          beq             a2,a1,22        # 0xffffffffc0201fa0

----------------
IN: 
0xffffffffc0201fa0:  4501              mv              a0,zero
0xffffffffc0201fa2:  8082              ret             

----------------
IN: 
0xffffffffc020067c:  4c85              addi            s9,zero,1
0xffffffffc020067e:  0a91              addi            s5,s5,4
0xffffffffc0200680:  9ad2              add             s5,s5,s4
0xffffffffc0200682:  ffcafa93          andi            s5,s5,-4
0xffffffffc0200686:  8a56              mv              s4,s5
0xffffffffc0200688:  bf2d              j               -198            # 0xffffffffc02005c2

----------------
IN: 
0xffffffffc02006d8:  008a2783          lw              a5,8(s4)
0xffffffffc02006dc:  85ca              mv              a1,s2
0xffffffffc02006de:  e436              sd              a3,8(sp)
0xffffffffc02006e0:  0087d51b          srliw           a0,a5,8
0xffffffffc02006e4:  0187d61b          srliw           a2,a5,24
0xffffffffc02006e8:  0187971b          slliw           a4,a5,24
0xffffffffc02006ec:  0105151b          slliw           a0,a0,16
0xffffffffc02006f0:  0107d79b          srliw           a5,a5,16
0xffffffffc02006f4:  8f51              or              a4,a4,a2
0xffffffffc02006f6:  01857533          and             a0,a0,s8
0xffffffffc02006fa:  0087979b          slliw           a5,a5,8
0xffffffffc02006fe:  8d59              or              a0,a0,a4
0xffffffffc0200700:  00fb77b3          and             a5,s6,a5
0xffffffffc0200704:  8d5d              or              a0,a0,a5
0xffffffffc0200706:  1502              slli            a0,a0,32
0xffffffffc0200708:  9101              srli            a0,a0,32
0xffffffffc020070a:  9522              add             a0,a0,s0
0xffffffffc020070c:  055010ef          jal             ra,6228         # 0xffffffffc0201f60

----------------
IN: 
0xffffffffc0201f60:  00054783          lbu             a5,0(a0)
0xffffffffc0201f64:  0005c703          lbu             a4,0(a1)
0xffffffffc0201f68:  cb89              beqz            a5,18           # 0xffffffffc0201f7a

----------------
IN: 
0xffffffffc0201f6a:  0505              addi            a0,a0,1
0xffffffffc0201f6c:  0585              addi            a1,a1,1
0xffffffffc0201f6e:  fee789e3          beq             a5,a4,-14       # 0xffffffffc0201f60

----------------
IN: 
0xffffffffc0201f72:  0007851b          sext.w          a0,a5
0xffffffffc0201f76:  9d19              subw            a0,a0,a4
0xffffffffc0201f78:  8082              ret             

----------------
IN: 
0xffffffffc0200710:  66a2              ld              a3,8(sp)
0xffffffffc0200712:  f94d              bnez            a0,-78          # 0xffffffffc02006c4

----------------
IN: 
0xffffffffc0201f7a:  4501              mv              a0,zero
0xffffffffc0201f7c:  bfed              j               -6              # 0xffffffffc0201f76

----------------
IN: 
0xffffffffc0201f76:  9d19              subw            a0,a0,a4
0xffffffffc0201f78:  8082              ret             

----------------
IN: 
0xffffffffc0200714:  fb59f8e3          bleu            s5,s3,-80       # 0xffffffffc02006c4

----------------
IN: 
0xffffffffc0200718:  00ca3783          ld              a5,12(s4)
0xffffffffc020071c:  014a3703          ld              a4,20(s4)
0xffffffffc0200720:  00002517          auipc           a0,8192         # 0xffffffffc0202720
0xffffffffc0200724:  c5850513          addi            a0,a0,-936
0xffffffffc0200728:  4207d613          srai            a2,a5,32
0xffffffffc020072c:  0087d31b          srliw           t1,a5,8
0xffffffffc0200730:  42075593          srai            a1,a4,32
0xffffffffc0200734:  0187de1b          srliw           t3,a5,24
0xffffffffc0200738:  0186581b          srliw           a6,a2,24
0xffffffffc020073c:  0187941b          slliw           s0,a5,24
0xffffffffc0200740:  0107d89b          srliw           a7,a5,16
0xffffffffc0200744:  0187d693          srli            a3,a5,24
0xffffffffc0200748:  01861f1b          slliw           t5,a2,24
0xffffffffc020074c:  0087579b          srliw           a5,a4,8
0xffffffffc0200750:  0103131b          slliw           t1,t1,16
0xffffffffc0200754:  0106561b          srliw           a2,a2,16
0xffffffffc0200758:  010f6f33          or              t5,t5,a6
0xffffffffc020075c:  0187529b          srliw           t0,a4,24
0xffffffffc0200760:  0185df9b          srliw           t6,a1,24
0xffffffffc0200764:  01837333          and             t1,t1,s8
0xffffffffc0200768:  01c46433          or              s0,s0,t3
0xffffffffc020076c:  0186f6b3          and             a3,a3,s8
0xffffffffc0200770:  01859e1b          slliw           t3,a1,24
0xffffffffc0200774:  01871e9b          slliw           t4,a4,24
0xffffffffc0200778:  0107581b          srliw           a6,a4,16
0xffffffffc020077c:  0086161b          slliw           a2,a2,8
0xffffffffc0200780:  8361              srli            a4,a4,24
0xffffffffc0200782:  0107979b          slliw           a5,a5,16
0xffffffffc0200786:  0105d59b          srliw           a1,a1,16
0xffffffffc020078a:  01e6e6b3          or              a3,a3,t5
0xffffffffc020078e:  00cb7633          and             a2,s6,a2
0xffffffffc0200792:  0088181b          slliw           a6,a6,8
0xffffffffc0200796:  0085959b          slliw           a1,a1,8
0xffffffffc020079a:  00646433          or              s0,s0,t1
0xffffffffc020079e:  0187f7b3          and             a5,a5,s8
0xffffffffc02007a2:  01fe6333          or              t1,t3,t6
0xffffffffc02007a6:  01877c33          and             s8,a4,s8
0xffffffffc02007aa:  0088989b          slliw           a7,a7,8
0xffffffffc02007ae:  011b78b3          and             a7,s6,a7
0xffffffffc02007b2:  005eeeb3          or              t4,t4,t0
0xffffffffc02007b6:  00c6e733          or              a4,a3,a2
0xffffffffc02007ba:  006c6c33          or              s8,s8,t1
0xffffffffc02007be:  010b76b3          and             a3,s6,a6
0xffffffffc02007c2:  00bb7b33          and             s6,s6,a1
0xffffffffc02007c6:  01d7e7b3          or              a5,a5,t4
0xffffffffc02007ca:  016c6b33          or              s6,s8,s6
0xffffffffc02007ce:  01146433          or              s0,s0,a7
0xffffffffc02007d2:  8fd5              or              a5,a5,a3
0xffffffffc02007d4:  1702              slli            a4,a4,32
0xffffffffc02007d6:  1b02              slli            s6,s6,32
0xffffffffc02007d8:  1782              slli            a5,a5,32
0xffffffffc02007da:  9301              srli            a4,a4,32
0xffffffffc02007dc:  1402              slli            s0,s0,32
0xffffffffc02007de:  020b5b13          srli            s6,s6,32
0xffffffffc02007e2:  0167eb33          or              s6,a5,s6
0xffffffffc02007e6:  8c59              or              s0,s0,a4
0xffffffffc02007e8:  90fff0ef          jal             ra,-1778        # 0xffffffffc02000f6

----------------
IN: 
0xffffffffc02007ec:  85a2              mv              a1,s0
0xffffffffc02007ee:  00002517          auipc           a0,8192         # 0xffffffffc02027ee
0xffffffffc02007f2:  baa50513          addi            a0,a0,-1110
0xffffffffc02007f6:  901ff0ef          jal             ra,-1792        # 0xffffffffc02000f6

----------------
IN: 
0xffffffffc0201b2e:  87b2              mv              a5,a2
0xffffffffc0201b30:  00144603          lbu             a2,1(s0)
0xffffffffc0201b34:  846a              mv              s0,s10
0xffffffffc0201b36:  00140d13          addi            s10,s0,1
0xffffffffc0201b3a:  fdd6059b          addiw           a1,a2,-35
0xffffffffc0201b3e:  0ff5f593          andi            a1,a1,255
0xffffffffc0201b42:  fcb572e3          bleu            a1,a0,-60       # 0xffffffffc0201b06

----------------
IN: 
0xffffffffc0201b64:  fd060c1b          addiw           s8,a2,-48
0xffffffffc0201b68:  00144603          lbu             a2,1(s0)
0xffffffffc0201b6c:  846a              mv              s0,s10
0xffffffffc0201b6e:  fd06069b          addiw           a3,a2,-48
0xffffffffc0201b72:  0006059b          sext.w          a1,a2
0xffffffffc0201b76:  02d86463          bgtu            a3,a6,40        # 0xffffffffc0201b9e

----------------
IN: 
0xffffffffc0201b7a:  00144603          lbu             a2,1(s0)
0xffffffffc0201b7e:  002c169b          slliw           a3,s8,2
0xffffffffc0201b82:  0186873b          addw            a4,a3,s8
0xffffffffc0201b86:  0017171b          slliw           a4,a4,1
0xffffffffc0201b8a:  9f2d              addw            a4,a4,a1
0xffffffffc0201b8c:  fd06069b          addiw           a3,a2,-48
0xffffffffc0201b90:  0405              addi            s0,s0,1
0xffffffffc0201b92:  fd070c1b          addiw           s8,a4,-48
0xffffffffc0201b96:  0006059b          sext.w          a1,a2
0xffffffffc0201b9a:  fed870e3          bleu            a3,a6,-32       # 0xffffffffc0201b7a

----------------
IN: 
0xffffffffc0201b9e:  f40ddce3          bgez            s11,-168        # 0xffffffffc0201af6

----------------
IN: 
0xffffffffc0201ba2:  8de2              mv              s11,s8
0xffffffffc0201ba4:  5c7d              addi            s8,zero,-1
0xffffffffc0201ba6:  bf81              j               -176            # 0xffffffffc0201af6

----------------
IN: 
0xffffffffc0201a4c:  347d              addiw           s0,s0,-1
0xffffffffc0201a4e:  85ca              mv              a1,s2
0xffffffffc0201a50:  854e              mv              a0,s3
0xffffffffc0201a52:  9482              jalr            ra,s1,0

----------------
IN: 
0xffffffffc0201a54:  fc65              bnez            s0,-8           # 0xffffffffc0201a4c

----------------
IN: 
0xffffffffc02007fa:  014b5613          srli            a2,s6,20
0xffffffffc02007fe:  85da              mv              a1,s6
0xffffffffc0200800:  00002517          auipc           a0,8192         # 0xffffffffc0202800
0xffffffffc0200804:  bb050513          addi            a0,a0,-1104
0xffffffffc0200808:  8efff0ef          jal             ra,-1810        # 0xffffffffc02000f6

----------------
IN: 
0xffffffffc020080c:  008b05b3          add             a1,s6,s0
0xffffffffc0200810:  15fd              addi            a1,a1,-1
0xffffffffc0200812:  00002517          auipc           a0,8192         # 0xffffffffc0202812
0xffffffffc0200816:  bbe50513          addi            a0,a0,-1090
0xffffffffc020081a:  8ddff0ef          jal             ra,-1828        # 0xffffffffc02000f6

----------------
IN: 
0xffffffffc020081e:  00002517          auipc           a0,8192         # 0xffffffffc020281e
0xffffffffc0200822:  c0250513          addi            a0,a0,-1022
0xffffffffc0200826:  00007797          auipc           a5,28672        # 0xffffffffc0207826
0xffffffffc020082a:  c287b523          sd              s0,-982(a5)
0xffffffffc020082e:  00007797          auipc           a5,28672        # 0xffffffffc020782e
0xffffffffc0200832:  c367b523          sd              s6,-982(a5)
0xffffffffc0200836:  b3f5              j               -532            # 0xffffffffc0200622

----------------
IN: 
0xffffffffc0200622:  7446              ld              s0,112(sp)
0xffffffffc0200624:  70e6              ld              ra,120(sp)
0xffffffffc0200626:  74a6              ld              s1,104(sp)
0xffffffffc0200628:  7906              ld              s2,96(sp)
0xffffffffc020062a:  69e6              ld              s3,88(sp)
0xffffffffc020062c:  6a46              ld              s4,80(sp)
0xffffffffc020062e:  6aa6              ld              s5,72(sp)
0xffffffffc0200630:  6b06              ld              s6,64(sp)
0xffffffffc0200632:  7be2              ld              s7,56(sp)
0xffffffffc0200634:  7c42              ld              s8,48(sp)
0xffffffffc0200636:  7ca2              ld              s9,40(sp)
0xffffffffc0200638:  7d02              ld              s10,32(sp)
0xffffffffc020063a:  6de2              ld              s11,24(sp)
0xffffffffc020063c:  6109              addi            sp,sp,128
0xffffffffc020063e:  bc65              j               -1352           # 0xffffffffc02000f6

----------------
IN: 
0xffffffffc0200074:  41a000ef          jal             ra,1050         # 0xffffffffc020048e

----------------
IN: 
0xffffffffc020048e:  8082              ret             

----------------
IN: 
0xffffffffc0200078:  00002517          auipc           a0,8192         # 0xffffffffc0202078
0xffffffffc020007c:  f9050513          addi            a0,a0,-112
0xffffffffc0200080:  0ae000ef          jal             ra,174          # 0xffffffffc020012e

----------------
IN: 
0xffffffffc020012e:  1101              addi            sp,sp,-32
0xffffffffc0200130:  e822              sd              s0,16(sp)
0xffffffffc0200132:  ec06              sd              ra,24(sp)
0xffffffffc0200134:  e426              sd              s1,8(sp)
0xffffffffc0200136:  842a              mv              s0,a0
0xffffffffc0200138:  00054503          lbu             a0,0(a0)
0xffffffffc020013c:  c51d              beqz            a0,46           # 0xffffffffc020016a

----------------
IN: 
0xffffffffc020013e:  0405              addi            s0,s0,1
0xffffffffc0200140:  4485              addi            s1,zero,1
0xffffffffc0200142:  9c81              subw            s1,s1,s0
0xffffffffc0200144:  34c000ef          jal             ra,844          # 0xffffffffc0200490

----------------
IN: 
0xffffffffc0200148:  00044503          lbu             a0,0(s0)
0xffffffffc020014c:  008487bb          addw            a5,s1,s0
0xffffffffc0200150:  0405              addi            s0,s0,1
0xffffffffc0200152:  f96d              bnez            a0,-14          # 0xffffffffc0200144

----------------
IN: 
0xffffffffc0200144:  34c000ef          jal             ra,844          # 0xffffffffc0200490

----------------
IN: 
0xffffffffc0200154:  0017841b          addiw           s0,a5,1
0xffffffffc0200158:  4529              addi            a0,zero,10
0xffffffffc020015a:  336000ef          jal             ra,822          # 0xffffffffc0200490

----------------
IN: 
0xffffffffc020015e:  60e2              ld              ra,24(sp)
0xffffffffc0200160:  8522              mv              a0,s0
0xffffffffc0200162:  6442              ld              s0,16(sp)
0xffffffffc0200164:  64a2              ld              s1,8(sp)
0xffffffffc0200166:  6105              addi            sp,sp,32
0xffffffffc0200168:  8082              ret             

----------------
IN: 
0xffffffffc0200084:  0fa000ef          jal             ra,250          # 0xffffffffc020017e

----------------
IN: 
0xffffffffc020017e:  1141              addi            sp,sp,-16
0xffffffffc0200180:  00002517          auipc           a0,8192         # 0xffffffffc0202180
0xffffffffc0200184:  ea850513          addi            a0,a0,-344
0xffffffffc0200188:  e406              sd              ra,8(sp)
0xffffffffc020018a:  f6dff0ef          jal             ra,-148         # 0xffffffffc02000f6

----------------
IN: 
0xffffffffc020018e:  00000597          auipc           a1,0            # 0xffffffffc020018e
0xffffffffc0200192:  ec658593          addi            a1,a1,-314
0xffffffffc0200196:  00002517          auipc           a0,8192         # 0xffffffffc0202196
0xffffffffc020019a:  eb250513          addi            a0,a0,-334
0xffffffffc020019e:  f59ff0ef          jal             ra,-168         # 0xffffffffc02000f6

----------------
IN: 
0xffffffffc02001a2:  00002597          auipc           a1,8192         # 0xffffffffc02021a2
0xffffffffc02001a6:  e2a58593          addi            a1,a1,-470
0xffffffffc02001aa:  00002517          auipc           a0,8192         # 0xffffffffc02021aa
0xffffffffc02001ae:  ebe50513          addi            a0,a0,-322
0xffffffffc02001b2:  f45ff0ef          jal             ra,-188         # 0xffffffffc02000f6

----------------
IN: 
0xffffffffc02001b6:  00007597          auipc           a1,28672        # 0xffffffffc02071b6
0xffffffffc02001ba:  e7258593          addi            a1,a1,-398
0xffffffffc02001be:  00002517          auipc           a0,8192         # 0xffffffffc02021be
0xffffffffc02001c2:  eca50513          addi            a0,a0,-310
0xffffffffc02001c6:  f31ff0ef          jal             ra,-208         # 0xffffffffc02000f6

----------------
IN: 
0xffffffffc02001ca:  00007597          auipc           a1,28672        # 0xffffffffc02071ca
0xffffffffc02001ce:  2d658593          addi            a1,a1,726
0xffffffffc02001d2:  00002517          auipc           a0,8192         # 0xffffffffc02021d2
0xffffffffc02001d6:  ed650513          addi            a0,a0,-298
0xffffffffc02001da:  f1dff0ef          jal             ra,-228         # 0xffffffffc02000f6

----------------
IN: 
0xffffffffc02001de:  00007597          auipc           a1,28672        # 0xffffffffc02071de
0xffffffffc02001e2:  6c158593          addi            a1,a1,1729
0xffffffffc02001e6:  00000797          auipc           a5,0            # 0xffffffffc02001e6
0xffffffffc02001ea:  e6e78793          addi            a5,a5,-402
0xffffffffc02001ee:  40f587b3          sub             a5,a1,a5
0xffffffffc02001f2:  43f7d593          srai            a1,a5,63
0xffffffffc02001f6:  60a2              ld              ra,8(sp)
0xffffffffc02001f8:  3ff5f593          andi            a1,a1,1023
0xffffffffc02001fc:  95be              add             a1,a1,a5
0xffffffffc02001fe:  85a9              srai            a1,a1,10
0xffffffffc0200200:  00002517          auipc           a0,8192         # 0xffffffffc0202200
0xffffffffc0200204:  ec850513          addi            a0,a0,-312
0xffffffffc0200208:  0141              addi            sp,sp,16
0xffffffffc020020a:  b5f5              j               -276            # 0xffffffffc02000f6

----------------
IN: 
0xffffffffc0201d76:  000a2403          lw              s0,0(s4)
0xffffffffc0201d7a:  b7ad              j               -150            # 0xffffffffc0201ce4

----------------
IN: 
0xffffffffc0201ce4:  0a044d63          bltz            s0,186          # 0xffffffffc0201d9e

----------------
IN: 
0xffffffffc0200088:  7d0000ef          jal             ra,2000         # 0xffffffffc0200858

----------------
IN: 
0xffffffffc0200858:  14005073          csrrwi          zero,sscratch,0

----------------
IN: 
0xffffffffc020085c:  00000797          auipc           a5,0            # 0xffffffffc020085c
0xffffffffc0200860:  39c78793          addi            a5,a5,924
0xffffffffc0200864:  10579073          csrrw           zero,stvec,a5

----------------
IN: 
0xffffffffc0200868:  8082              ret             

----------------
IN: 
0xffffffffc020008c:  7b2010ef          jal             ra,6066         # 0xffffffffc020183e

----------------
IN: 
0xffffffffc020183e:  00001797          auipc           a5,4096         # 0xffffffffc020283e
0xffffffffc0201842:  4d278793          addi            a5,a5,1234
0xffffffffc0201846:  638c              ld              a1,0(a5)
0xffffffffc0201848:  7179              addi            sp,sp,-48
0xffffffffc020184a:  f022              sd              s0,32(sp)
0xffffffffc020184c:  00001517          auipc           a0,4096         # 0xffffffffc020284c
0xffffffffc0201850:  4fc50513          addi            a0,a0,1276
0xffffffffc0201854:  00006417          auipc           s0,24576        # 0xffffffffc0207854
0xffffffffc0201858:  c2440413          addi            s0,s0,-988
0xffffffffc020185c:  f406              sd              ra,40(sp)
0xffffffffc020185e:  ec26              sd              s1,24(sp)
0xffffffffc0201860:  e44e              sd              s3,8(sp)
0xffffffffc0201862:  e84a              sd              s2,16(sp)
0xffffffffc0201864:  e052              sd              s4,0(sp)
0xffffffffc0201866:  e01c              sd              a5,0(s0)
0xffffffffc0201868:  88ffe0ef          jal             ra,-6002        # 0xffffffffc02000f6

----------------
IN: 
0xffffffffc0201c66:  000a3403          ld              s0,0(s4)
0xffffffffc0201c6a:  008a0713          addi            a4,s4,8
0xffffffffc0201c6e:  e03a              sd              a4,0(sp)
0xffffffffc0201c70:  14040263          beqz            s0,324          # 0xffffffffc0201db4

----------------
IN: 
0xffffffffc0201c74:  0fb05763          blez            s11,238         # 0xffffffffc0201d62

----------------
IN: 
0xffffffffc0201d62:  00044783          lbu             a5,0(s0)
0xffffffffc0201d66:  00140a13          addi            s4,s0,1
0xffffffffc0201d6a:  0007851b          sext.w          a0,a5
0xffffffffc0201d6e:  d3a5              beqz            a5,-160         # 0xffffffffc0201cce

----------------
IN: 
0xffffffffc0201d70:  05e00413          addi            s0,zero,94
0xffffffffc0201d74:  bf39              j               -226            # 0xffffffffc0201c92

----------------
IN: 
0xffffffffc0201c92:  000c4563          bltz            s8,10           # 0xffffffffc0201c9c

----------------
IN: 
0xffffffffc0201c9c:  85a6              mv              a1,s1
0xffffffffc0201c9e:  0e0c8e63          beqz            s9,252          # 0xffffffffc0201d9a

----------------
IN: 
0xffffffffc0201d9a:  9902              jalr            ra,s2,0

----------------
IN: 
0xffffffffc0201d9c:  bf09              j               -238            # 0xffffffffc0201cae

----------------
IN: 
0xffffffffc0201cae:  000a4783          lbu             a5,0(s4)
0xffffffffc0201cb2:  3dfd              addiw           s11,s11,-1
0xffffffffc0201cb4:  0a05              addi            s4,s4,1
0xffffffffc0201cb6:  0007851b          sext.w          a0,a5
0xffffffffc0201cba:  ffe1              bnez            a5,-40          # 0xffffffffc0201c92

----------------
IN: 
0xffffffffc0201cbc:  01b05963          blez            s11,18          # 0xffffffffc0201cce

----------------
IN: 
0xffffffffc0201cce:  6a02              ld              s4,0(sp)
0xffffffffc0201cd0:  bbd5              j               -524            # 0xffffffffc0201ac4

----------------
IN: 
0xffffffffc020186c:  601c              ld              a5,0(s0)
0xffffffffc020186e:  00006497          auipc           s1,24576        # 0xffffffffc020786e
0xffffffffc0201872:  c2248493          addi            s1,s1,-990
0xffffffffc0201876:  679c              ld              a5,8(a5)
0xffffffffc0201878:  9782              jalr            ra,a5,0

----------------
IN: 
0xffffffffc0200cae:  00006797          auipc           a5,24576        # 0xffffffffc0206cae
0xffffffffc0200cb2:  37a78793          addi            a5,a5,890
0xffffffffc0200cb6:  e79c              sd              a5,8(a5)
0xffffffffc0200cb8:  e39c              sd              a5,0(a5)
0xffffffffc0200cba:  0007a823          sw              zero,16(a5)
0xffffffffc0200cbe:  8082              ret             

----------------
IN: 
0xffffffffc020187a:  57f5              addi            a5,zero,-3
0xffffffffc020187c:  07fa              slli            a5,a5,30
0xffffffffc020187e:  e09c              sd              a5,0(s1)
0xffffffffc0201880:  fb9fe0ef          jal             ra,-4168        # 0xffffffffc0200838

----------------
IN: 
0xffffffffc0200838:  00007517          auipc           a0,28672        # 0xffffffffc0207838
0xffffffffc020083c:  c1853503          ld              a0,-1000(a0)
0xffffffffc0200840:  8082              ret             

----------------
IN: 
0xffffffffc0201884:  89aa              mv              s3,a0
0xffffffffc0201886:  fbdfe0ef          jal             ra,-4164        # 0xffffffffc0200842

----------------
IN: 
0xffffffffc0200842:  00007517          auipc           a0,28672        # 0xffffffffc0207842
0xffffffffc0200846:  c1653503          ld              a0,-1002(a0)
0xffffffffc020084a:  8082              ret             

----------------
IN: 
0xffffffffc020188a:  16050163          beqz            a0,354          # 0xffffffffc02019ec

----------------
IN: 
0xffffffffc020188e:  892a              mv              s2,a0
0xffffffffc0201890:  00001517          auipc           a0,4096         # 0xffffffffc0202890
0xffffffffc0201894:  50050513          addi            a0,a0,1280
0xffffffffc0201898:  85ffe0ef          jal             ra,-6050        # 0xffffffffc02000f6

----------------
IN: 
0xffffffffc020189c:  01298a33          add             s4,s3,s2
0xffffffffc02018a0:  864e              mv              a2,s3
0xffffffffc02018a2:  fffa0693          addi            a3,s4,-1
0xffffffffc02018a6:  85ca              mv              a1,s2
0xffffffffc02018a8:  00001517          auipc           a0,4096         # 0xffffffffc02028a8
0xffffffffc02018ac:  50050513          addi            a0,a0,1280
0xffffffffc02018b0:  847fe0ef          jal             ra,-6074        # 0xffffffffc02000f6

----------------
IN: 
0xffffffffc02018b4:  c80007b7          lui             a5,-939524096
0xffffffffc02018b8:  8652              mv              a2,s4
0xffffffffc02018ba:  0d47e863          bgtu            s4,a5,208       # 0xffffffffc020198a

----------------
IN: 
0xffffffffc02018be:  00007797          auipc           a5,28672        # 0xffffffffc02088be
0xffffffffc02018c2:  be178793          addi            a5,a5,-1055
0xffffffffc02018c6:  757d              lui             a0,-4096
0xffffffffc02018c8:  8d7d              and             a0,a0,a5
0xffffffffc02018ca:  8231              srli            a2,a2,12
0xffffffffc02018cc:  00006597          auipc           a1,24576        # 0xffffffffc02078cc
0xffffffffc02018d0:  b9c58593          addi            a1,a1,-1124
0xffffffffc02018d4:  00006817          auipc           a6,24576        # 0xffffffffc02078d4
0xffffffffc02018d8:  b9c80813          addi            a6,a6,-1124
0xffffffffc02018dc:  e190              sd              a2,0(a1)
0xffffffffc02018de:  00a83023          sd              a0,0(a6)
0xffffffffc02018e2:  000807b7          lui             a5,524288
0xffffffffc02018e6:  02f60663          beq             a2,a5,44        # 0xffffffffc0201912

----------------
IN: 
0xffffffffc02018ea:  4701              mv              a4,zero
0xffffffffc02018ec:  4781              mv              a5,zero
0xffffffffc02018ee:  4305              addi            t1,zero,1
0xffffffffc02018f0:  fff808b7          lui             a7,-524288
0xffffffffc02018f4:  953a              add             a0,a0,a4
0xffffffffc02018f6:  00850693          addi            a3,a0,8
0xffffffffc02018fa:  4066b02f          amoor.d         zero,t1,(a3)
0xffffffffc02018fe:  6190              ld              a2,0(a1)
0xffffffffc0201900:  0785              addi            a5,a5,1
0xffffffffc0201902:  00083503          ld              a0,0(a6)
0xffffffffc0201906:  011606b3          add             a3,a2,a7
0xffffffffc020190a:  02870713          addi            a4,a4,40
0xffffffffc020190e:  fed7e3e3          bgtu            a3,a5,-26       # 0xffffffffc02018f4

----------------
IN: 
0xffffffffc02018f4:  953a              add             a0,a0,a4
0xffffffffc02018f6:  00850693          addi            a3,a0,8
0xffffffffc02018fa:  4066b02f          amoor.d         zero,t1,(a3)
0xffffffffc02018fe:  6190              ld              a2,0(a1)
0xffffffffc0201900:  0785              addi            a5,a5,1
0xffffffffc0201902:  00083503          ld              a0,0(a6)
0xffffffffc0201906:  011606b3          add             a3,a2,a7
0xffffffffc020190a:  02870713          addi            a4,a4,40
0xffffffffc020190e:  fed7e3e3          bgtu            a3,a5,-26       # 0xffffffffc02018f4

----------------
IN: 
0xffffffffc0201912:  00261693          slli            a3,a2,2
0xffffffffc0201916:  96b2              add             a3,a3,a2
0xffffffffc0201918:  fec007b7          lui             a5,-20971520
0xffffffffc020191c:  97aa              add             a5,a5,a0
0xffffffffc020191e:  068e              slli            a3,a3,3
0xffffffffc0201920:  96be              add             a3,a3,a5
0xffffffffc0201922:  c02007b7          lui             a5,-1071644672
0xffffffffc0201926:  0af6e763          bgtu            a5,a3,174       # 0xffffffffc02019d4

----------------
IN: 
0xffffffffc020192a:  6098              ld              a4,0(s1)
0xffffffffc020192c:  77fd              lui             a5,-4096
0xffffffffc020192e:  00fa75b3          and             a1,s4,a5
0xffffffffc0201932:  8e99              sub             a3,a3,a4
0xffffffffc0201934:  04b6ee63          bgtu            a1,a3,92        # 0xffffffffc0201990

----------------
IN: 
0xffffffffc0201990:  6705              lui             a4,4096
0xffffffffc0201992:  177d              addi            a4,a4,-1
0xffffffffc0201994:  96ba              add             a3,a3,a4
0xffffffffc0201996:  8efd              and             a3,a3,a5
0xffffffffc0201998:  00c6d793          srli            a5,a3,12
0xffffffffc020199c:  02c7f063          bleu            a2,a5,32        # 0xffffffffc02019bc

----------------
IN: 
0xffffffffc02019a0:  6010              ld              a2,0(s0)
0xffffffffc02019a2:  fff80737          lui             a4,-524288
0xffffffffc02019a6:  973e              add             a4,a4,a5
0xffffffffc02019a8:  00271793          slli            a5,a4,2
0xffffffffc02019ac:  97ba              add             a5,a5,a4
0xffffffffc02019ae:  6a18              ld              a4,16(a2)
0xffffffffc02019b0:  8d95              sub             a1,a1,a3
0xffffffffc02019b2:  078e              slli            a5,a5,3
0xffffffffc02019b4:  81b1              srli            a1,a1,12
0xffffffffc02019b6:  953e              add             a0,a0,a5
0xffffffffc02019b8:  9702              jalr            ra,a4,0

----------------
IN: 
0xffffffffc0201692:  1141              addi            sp,sp,-16
0xffffffffc0201694:  e406              sd              ra,8(sp)
0xffffffffc0201696:  c9e1              beqz            a1,208          # 0xffffffffc0201766

----------------
IN: 
0xffffffffc0201698:  00259693          slli            a3,a1,2
0xffffffffc020169c:  96ae              add             a3,a3,a1
0xffffffffc020169e:  068e              slli            a3,a3,3
0xffffffffc02016a0:  96aa              add             a3,a3,a0
0xffffffffc02016a2:  87aa              mv              a5,a0
0xffffffffc02016a4:  00d50f63          beq             a0,a3,30        # 0xffffffffc02016c2

----------------
IN: 
0xffffffffc02016a8:  6798              ld              a4,8(a5)
0xffffffffc02016aa:  8b05              andi            a4,a4,1
0xffffffffc02016ac:  cf49              beqz            a4,154          # 0xffffffffc0201746

----------------
IN: 
0xffffffffc02016ae:  0007a823          sw              zero,16(a5)
0xffffffffc02016b2:  0007b423          sd              zero,8(a5)
0xffffffffc02016b6:  0007a023          sw              zero,0(a5)
0xffffffffc02016ba:  02878793          addi            a5,a5,40
0xffffffffc02016be:  fed795e3          bne             a5,a3,-22       # 0xffffffffc02016a8

----------------
IN: 
0xffffffffc02016c2:  2581              sext.w          a1,a1
0xffffffffc02016c4:  c90c              sw              a1,16(a0)
0xffffffffc02016c6:  4789              addi            a5,zero,2
0xffffffffc02016c8:  00850713          addi            a4,a0,8
0xffffffffc02016cc:  40f7302f          amoor.d         zero,a5,(a4)
0xffffffffc02016d0:  00006697          auipc           a3,24576        # 0xffffffffc02076d0
0xffffffffc02016d4:  95868693          addi            a3,a3,-1704
0xffffffffc02016d8:  4a98              lw              a4,16(a3)
0xffffffffc02016da:  669c              ld              a5,8(a3)
0xffffffffc02016dc:  01850613          addi            a2,a0,24
0xffffffffc02016e0:  9db9              addw            a1,a1,a4
0xffffffffc02016e2:  ca8c              sw              a1,16(a3)
0xffffffffc02016e4:  04d78a63          beq             a5,a3,84        # 0xffffffffc0201738

----------------
IN: 
0xffffffffc0201738:  60a2              ld              ra,8(sp)
0xffffffffc020173a:  e390              sd              a2,0(a5)
0xffffffffc020173c:  e790              sd              a2,8(a5)
0xffffffffc020173e:  f11c              sd              a5,32(a0)
0xffffffffc0201740:  ed1c              sd              a5,24(a0)
0xffffffffc0201742:  0141              addi            sp,sp,16
0xffffffffc0201744:  8082              ret             

----------------
IN: 
0xffffffffc02019ba:  bfbd              j               -130            # 0xffffffffc0201938

----------------
IN: 
0xffffffffc0201938:  601c              ld              a5,0(s0)
0xffffffffc020193a:  7b9c              ld              a5,48(a5)
0xffffffffc020193c:  9782              jalr            ra,a5,0

----------------
IN: 
0xffffffffc0200cca:  715d              addi            sp,sp,-80
0xffffffffc0200ccc:  e0a2              sd              s0,64(sp)
0xffffffffc0200cce:  00006417          auipc           s0,24576        # 0xffffffffc0206cce
0xffffffffc0200cd2:  35a40413          addi            s0,s0,858
0xffffffffc0200cd6:  641c              ld              a5,8(s0)
0xffffffffc0200cd8:  e486              sd              ra,72(sp)
0xffffffffc0200cda:  fc26              sd              s1,56(sp)
0xffffffffc0200cdc:  f84a              sd              s2,48(sp)
0xffffffffc0200cde:  f44e              sd              s3,40(sp)
0xffffffffc0200ce0:  f052              sd              s4,32(sp)
0xffffffffc0200ce2:  ec56              sd              s5,24(sp)
0xffffffffc0200ce4:  e85a              sd              s6,16(sp)
0xffffffffc0200ce6:  e45e              sd              s7,8(sp)
0xffffffffc0200ce8:  e062              sd              s8,0(sp)
0xffffffffc0200cea:  2c878763          beq             a5,s0,718       # 0xffffffffc0200fb8

----------------
IN: 
0xffffffffc0200cee:  4481              mv              s1,zero
0xffffffffc0200cf0:  4901              mv              s2,zero
0xffffffffc0200cf2:  ff07b703          ld              a4,-16(a5)
0xffffffffc0200cf6:  8b09              andi            a4,a4,2
0xffffffffc0200cf8:  2c070463          beqz            a4,712          # 0xffffffffc0200fc0

----------------
IN: 
0xffffffffc0200cfc:  ff87a703          lw              a4,-8(a5)
0xffffffffc0200d00:  679c              ld              a5,8(a5)
0xffffffffc0200d02:  2905              addiw           s2,s2,1
0xffffffffc0200d04:  9cb9              addw            s1,s1,a4
0xffffffffc0200d06:  fe8796e3          bne             a5,s0,-20       # 0xffffffffc0200cf2

----------------
IN: 
0xffffffffc0200d0a:  89a6              mv              s3,s1
0xffffffffc0200d0c:  2f9000ef          jal             ra,2808         # 0xffffffffc0201804

----------------
IN: 
0xffffffffc0201804:  100027f3          csrrs           a5,sstatus,zero

----------------
IN: 
0xffffffffc0201808:  8b89              andi            a5,a5,2
0xffffffffc020180a:  e799              bnez            a5,14           # 0xffffffffc0201818

----------------
IN: 
0xffffffffc020180c:  00006797          auipc           a5,24576        # 0xffffffffc020780c
0xffffffffc0201810:  c6c7b783          ld              a5,-916(a5)
0xffffffffc0201814:  779c              ld              a5,40(a5)
0xffffffffc0201816:  8782              jr              a5

----------------
IN: 
0xffffffffc0200cc0:  00006517          auipc           a0,24576        # 0xffffffffc0206cc0
0xffffffffc0200cc4:  37856503          lwu             a0,888(a0)
0xffffffffc0200cc8:  8082              ret             

----------------
IN: 
0xffffffffc0200d10:  71351863          bne             a0,s3,1808      # 0xffffffffc0201420

----------------
IN: 
0xffffffffc0200d14:  4505              addi            a0,zero,1
0xffffffffc0200d16:  271000ef          jal             ra,2672         # 0xffffffffc0201786

----------------
IN: 
0xffffffffc0201786:  100027f3          csrrs           a5,sstatus,zero

----------------
IN: 
0xffffffffc020178a:  8b89              andi            a5,a5,2
0xffffffffc020178c:  e799              bnez            a5,14           # 0xffffffffc020179a

----------------
IN: 
0xffffffffc020178e:  00006797          auipc           a5,24576        # 0xffffffffc020778e
0xffffffffc0201792:  cea7b783          ld              a5,-790(a5)
0xffffffffc0201796:  6f9c              ld              a5,24(a5)
0xffffffffc0201798:  8782              jr              a5

----------------
IN: 
0xffffffffc02015d8:  c959              beqz            a0,150          # 0xffffffffc020166e

----------------
IN: 
0xffffffffc02015da:  00006597          auipc           a1,24576        # 0xffffffffc02075da
0xffffffffc02015de:  a4e58593          addi            a1,a1,-1458
0xffffffffc02015e2:  0105a803          lw              a6,16(a1)
0xffffffffc02015e6:  862a              mv              a2,a0
0xffffffffc02015e8:  02081793          slli            a5,a6,32
0xffffffffc02015ec:  9381              srli            a5,a5,32
0xffffffffc02015ee:  00a7ee63          bgtu            a0,a5,28        # 0xffffffffc020160a

----------------
IN: 
0xffffffffc02015f2:  87ae              mv              a5,a1
0xffffffffc02015f4:  a801              j               16              # 0xffffffffc0201604

----------------
IN: 
0xffffffffc0201604:  679c              ld              a5,8(a5)
0xffffffffc0201606:  feb798e3          bne             a5,a1,-16       # 0xffffffffc02015f6

----------------
IN: 
0xffffffffc02015f6:  ff87a703          lw              a4,-8(a5)
0xffffffffc02015fa:  02071693          slli            a3,a4,32
0xffffffffc02015fe:  9281              srli            a3,a3,32
0xffffffffc0201600:  00c6f763          bleu            a2,a3,14        # 0xffffffffc020160e

----------------
IN: 
0xffffffffc020160e:  0007b883          ld              a7,0(a5)
0xffffffffc0201612:  0087b303          ld              t1,8(a5)
0xffffffffc0201616:  fe878513          addi            a0,a5,-24
0xffffffffc020161a:  00060e1b          sext.w          t3,a2
0xffffffffc020161e:  0068b423          sd              t1,8(a7)
0xffffffffc0201622:  01133023          sd              a7,0(t1)
0xffffffffc0201626:  02d67b63          bleu            a3,a2,54        # 0xffffffffc020165c

----------------
IN: 
0xffffffffc020162a:  00261693          slli            a3,a2,2
0xffffffffc020162e:  96b2              add             a3,a3,a2
0xffffffffc0201630:  068e              slli            a3,a3,3
0xffffffffc0201632:  96aa              add             a3,a3,a0
0xffffffffc0201634:  41c7073b          subw            a4,a4,t3
0xffffffffc0201638:  ca98              sw              a4,16(a3)
0xffffffffc020163a:  00868613          addi            a2,a3,8
0xffffffffc020163e:  4709              addi            a4,zero,2
0xffffffffc0201640:  40e6302f          amoor.d         zero,a4,(a2)
0xffffffffc0201644:  0088b703          ld              a4,8(a7)
0xffffffffc0201648:  01868613          addi            a2,a3,24
0xffffffffc020164c:  0105a803          lw              a6,16(a1)
0xffffffffc0201650:  e310              sd              a2,0(a4)
0xffffffffc0201652:  00c8b423          sd              a2,8(a7)
0xffffffffc0201656:  f298              sd              a4,32(a3)
0xffffffffc0201658:  0116bc23          sd              a7,24(a3)
0xffffffffc020165c:  41c8083b          subw            a6,a6,t3
0xffffffffc0201660:  0105a823          sw              a6,16(a1)
0xffffffffc0201664:  5775              addi            a4,zero,-3
0xffffffffc0201666:  17c1              addi            a5,a5,-16
0xffffffffc0201668:  60e7b02f          amoand.d        zero,a4,(a5)
0xffffffffc020166c:  8082              ret             

----------------
IN: 
0xffffffffc0200d1a:  8a2a              mv              s4,a0
0xffffffffc0200d1c:  44050263          beqz            a0,1092         # 0xffffffffc0201160

----------------
IN: 
0xffffffffc0200d20:  4505              addi            a0,zero,1
0xffffffffc0200d22:  265000ef          jal             ra,2660         # 0xffffffffc0201786

----------------
IN: 
0xffffffffc0200d26:  89aa              mv              s3,a0
0xffffffffc0200d28:  70050c63          beqz            a0,1816         # 0xffffffffc0201440

----------------
IN: 
0xffffffffc0200d2c:  4505              addi            a0,zero,1
0xffffffffc0200d2e:  259000ef          jal             ra,2648         # 0xffffffffc0201786

----------------
IN: 
0xffffffffc0200d32:  8aaa              mv              s5,a0
0xffffffffc0200d34:  4a050663          beqz            a0,1196         # 0xffffffffc02011e0

----------------
IN: 
0xffffffffc0200d38:  2b3a0463          beq             s4,s3,680       # 0xffffffffc0200fe0

----------------
IN: 
0xffffffffc0200d3c:  2aaa0263          beq             s4,a0,676       # 0xffffffffc0200fe0

----------------
IN: 
0xffffffffc0200d40:  2aa98063          beq             s3,a0,672       # 0xffffffffc0200fe0

----------------
IN: 
0xffffffffc0200d44:  000a2783          lw              a5,0(s4)
0xffffffffc0200d48:  2a079c63          bnez            a5,696          # 0xffffffffc0201000

----------------
IN: 
0xffffffffc0200d4c:  0009a783          lw              a5,0(s3)
0xffffffffc0200d50:  2a079863          bnez            a5,688          # 0xffffffffc0201000

----------------
IN: 
0xffffffffc0200d54:  411c              lw              a5,0(a0)
0xffffffffc0200d56:  2a079563          bnez            a5,682          # 0xffffffffc0201000

----------------
IN: 
0xffffffffc0200d5a:  00006797          auipc           a5,24576        # 0xffffffffc0206d5a
0xffffffffc0200d5e:  7167b783          ld              a5,1814(a5)
0xffffffffc0200d62:  40fa0733          sub             a4,s4,a5
0xffffffffc0200d66:  870d              srai            a4,a4,3
0xffffffffc0200d68:  00002597          auipc           a1,8192         # 0xffffffffc0202d68
0xffffffffc0200d6c:  3705b583          ld              a1,880(a1)
0xffffffffc0200d70:  02b70733          mul             a4,a4,a1
0xffffffffc0200d74:  00002617          auipc           a2,8192         # 0xffffffffc0202d74
0xffffffffc0200d78:  36c63603          ld              a2,876(a2)
0xffffffffc0200d7c:  00006697          auipc           a3,24576        # 0xffffffffc0206d7c
0xffffffffc0200d80:  6ec6b683          ld              a3,1772(a3)
0xffffffffc0200d84:  06b2              slli            a3,a3,12
0xffffffffc0200d86:  9732              add             a4,a4,a2
0xffffffffc0200d88:  0732              slli            a4,a4,12
0xffffffffc0200d8a:  28d77b63          bleu            a3,a4,662       # 0xffffffffc0201020

----------------
IN: 
0xffffffffc0200d8e:  40f98733          sub             a4,s3,a5
0xffffffffc0200d92:  870d              srai            a4,a4,3
0xffffffffc0200d94:  02b70733          mul             a4,a4,a1
0xffffffffc0200d98:  9732              add             a4,a4,a2
0xffffffffc0200d9a:  0732              slli            a4,a4,12
0xffffffffc0200d9c:  4cd77263          bleu            a3,a4,1220      # 0xffffffffc0201260

----------------
IN: 
0xffffffffc0200da0:  40f507b3          sub             a5,a0,a5
0xffffffffc0200da4:  878d              srai            a5,a5,3
0xffffffffc0200da6:  02b787b3          mul             a5,a5,a1
0xffffffffc0200daa:  97b2              add             a5,a5,a2
0xffffffffc0200dac:  07b2              slli            a5,a5,12
0xffffffffc0200dae:  30d7f963          bleu            a3,a5,786       # 0xffffffffc02010c0

----------------
IN: 
0xffffffffc0200db2:  4505              addi            a0,zero,1
0xffffffffc0200db4:  00043c03          ld              s8,0(s0)
0xffffffffc0200db8:  00843b83          ld              s7,8(s0)
0xffffffffc0200dbc:  01042b03          lw              s6,16(s0)
0xffffffffc0200dc0:  e400              sd              s0,8(s0)
0xffffffffc0200dc2:  e000              sd              s0,0(s0)
0xffffffffc0200dc4:  00006797          auipc           a5,24576        # 0xffffffffc0206dc4
0xffffffffc0200dc8:  2607aa23          sw              zero,628(a5)
0xffffffffc0200dcc:  1bb000ef          jal             ra,2490         # 0xffffffffc0201786

----------------
IN: 
0xffffffffc020160a:  4501              mv              a0,zero
0xffffffffc020160c:  8082              ret             

----------------
IN: 
0xffffffffc0200dd0:  2c051863          bnez            a0,720          # 0xffffffffc02010a0

----------------
IN: 
0xffffffffc0200dd4:  4585              addi            a1,zero,1
0xffffffffc0200dd6:  8552              mv              a0,s4
0xffffffffc0200dd8:  1ed000ef          jal             ra,2540         # 0xffffffffc02017c4

----------------
IN: 
0xffffffffc02017c4:  100027f3          csrrs           a5,sstatus,zero

----------------
IN: 
0xffffffffc02017c8:  8b89              andi            a5,a5,2
0xffffffffc02017ca:  e799              bnez            a5,14           # 0xffffffffc02017d8

----------------
IN: 
0xffffffffc02017cc:  00006797          auipc           a5,24576        # 0xffffffffc02077cc
0xffffffffc02017d0:  cac7b783          ld              a5,-852(a5)
0xffffffffc02017d4:  739c              ld              a5,32(a5)
0xffffffffc02017d6:  8782              jr              a5

----------------
IN: 
0xffffffffc0201460:  1141              addi            sp,sp,-16
0xffffffffc0201462:  e406              sd              ra,8(sp)
0xffffffffc0201464:  14058a63          beqz            a1,340          # 0xffffffffc02015b8

----------------
IN: 
0xffffffffc0201468:  00259693          slli            a3,a1,2
0xffffffffc020146c:  96ae              add             a3,a3,a1
0xffffffffc020146e:  068e              slli            a3,a3,3
0xffffffffc0201470:  96aa              add             a3,a3,a0
0xffffffffc0201472:  87aa              mv              a5,a0
0xffffffffc0201474:  02d50263          beq             a0,a3,36        # 0xffffffffc0201498

----------------
IN: 
0xffffffffc0201478:  6798              ld              a4,8(a5)
0xffffffffc020147a:  8b05              andi            a4,a4,1
0xffffffffc020147c:  10071e63          bnez            a4,284          # 0xffffffffc0201598

----------------
IN: 
0xffffffffc0201480:  6798              ld              a4,8(a5)
0xffffffffc0201482:  8b09              andi            a4,a4,2
0xffffffffc0201484:  10071a63          bnez            a4,276          # 0xffffffffc0201598

----------------
IN: 
0xffffffffc0201488:  0007b423          sd              zero,8(a5)
0xffffffffc020148c:  0007a023          sw              zero,0(a5)
0xffffffffc0201490:  02878793          addi            a5,a5,40
0xffffffffc0201494:  fed792e3          bne             a5,a3,-28       # 0xffffffffc0201478

----------------
IN: 
0xffffffffc0201498:  2581              sext.w          a1,a1
0xffffffffc020149a:  c90c              sw              a1,16(a0)
0xffffffffc020149c:  00850893          addi            a7,a0,8
0xffffffffc02014a0:  4789              addi            a5,zero,2
0xffffffffc02014a2:  40f8b02f          amoor.d         zero,a5,(a7)
0xffffffffc02014a6:  00006697          auipc           a3,24576        # 0xffffffffc02074a6
0xffffffffc02014aa:  b8268693          addi            a3,a3,-1150
0xffffffffc02014ae:  4a98              lw              a4,16(a3)
0xffffffffc02014b0:  669c              ld              a5,8(a3)
0xffffffffc02014b2:  01850613          addi            a2,a0,24
0xffffffffc02014b6:  9db9              addw            a1,a1,a4
0xffffffffc02014b8:  ca8c              sw              a1,16(a3)
0xffffffffc02014ba:  0ad78863          beq             a5,a3,176       # 0xffffffffc020156a

----------------
IN: 
0xffffffffc020156a:  60a2              ld              ra,8(sp)
0xffffffffc020156c:  e390              sd              a2,0(a5)
0xffffffffc020156e:  e790              sd              a2,8(a5)
0xffffffffc0201570:  f11c              sd              a5,32(a0)
0xffffffffc0201572:  ed1c              sd              a5,24(a0)
0xffffffffc0201574:  0141              addi            sp,sp,16
0xffffffffc0201576:  8082              ret             

----------------
IN: 
0xffffffffc0200ddc:  4585              addi            a1,zero,1
0xffffffffc0200dde:  854e              mv              a0,s3
0xffffffffc0200de0:  1e5000ef          jal             ra,2532         # 0xffffffffc02017c4

----------------
IN: 
0xffffffffc02014be:  fe878713          addi            a4,a5,-24
0xffffffffc02014c2:  0006b803          ld              a6,0(a3)
0xffffffffc02014c6:  4581              mv              a1,zero
0xffffffffc02014c8:  00e56a63          bgtu            a4,a0,20        # 0xffffffffc02014dc

----------------
IN: 
0xffffffffc02014cc:  6798              ld              a4,8(a5)
0xffffffffc02014ce:  06d70263          beq             a4,a3,100       # 0xffffffffc0201532

----------------
IN: 
0xffffffffc0201532:  e790              sd              a2,8(a5)
0xffffffffc0201534:  f114              sd              a3,32(a0)
0xffffffffc0201536:  6798              ld              a4,8(a5)
0xffffffffc0201538:  ed1c              sd              a5,24(a0)
0xffffffffc020153a:  02d70563          beq             a4,a3,42        # 0xffffffffc0201564

----------------
IN: 
0xffffffffc020153e:  8832              mv              a6,a2
0xffffffffc0201540:  4585              addi            a1,zero,1
0xffffffffc0201542:  87ba              mv              a5,a4
0xffffffffc0201544:  bf41              j               -112            # 0xffffffffc02014d4

----------------
IN: 
0xffffffffc02014d4:  fe878713          addi            a4,a5,-24
0xffffffffc02014d8:  fee57ae3          bleu            a4,a0,-12       # 0xffffffffc02014cc

----------------
IN: 
0xffffffffc0201564:  e290              sd              a2,0(a3)
0xffffffffc0201566:  873e              mv              a4,a5
0xffffffffc0201568:  b761              j               -120            # 0xffffffffc02014f0

----------------
IN: 
0xffffffffc02014f0:  ff872803          lw              a6,-8(a4)
0xffffffffc02014f4:  fe870593          addi            a1,a4,-24
0xffffffffc02014f8:  02081613          slli            a2,a6,32
0xffffffffc02014fc:  9201              srli            a2,a2,32
0xffffffffc02014fe:  00261793          slli            a5,a2,2
0xffffffffc0201502:  97b2              add             a5,a5,a2
0xffffffffc0201504:  078e              slli            a5,a5,3
0xffffffffc0201506:  97ae              add             a5,a5,a1
0xffffffffc0201508:  02f50f63          beq             a0,a5,62        # 0xffffffffc0201546

----------------
IN: 
0xffffffffc020150c:  7118              ld              a4,32(a0)
0xffffffffc020150e:  00d70f63          beq             a4,a3,30        # 0xffffffffc020152c

----------------
IN: 
0xffffffffc020152c:  60a2              ld              ra,8(sp)
0xffffffffc020152e:  0141              addi            sp,sp,16
0xffffffffc0201530:  8082              ret             

----------------
IN: 
0xffffffffc0200de4:  4585              addi            a1,zero,1
0xffffffffc0200de6:  8556              mv              a0,s5
0xffffffffc0200de8:  1dd000ef          jal             ra,2524         # 0xffffffffc02017c4

----------------
IN: 
0xffffffffc02014d2:  87ba              mv              a5,a4
0xffffffffc02014d4:  fe878713          addi            a4,a5,-24
0xffffffffc02014d8:  fee57ae3          bleu            a4,a0,-12       # 0xffffffffc02014cc

----------------
IN: 
0xffffffffc0200dec:  4818              lw              a4,16(s0)
0xffffffffc0200dee:  478d              addi            a5,zero,3
0xffffffffc0200df0:  28f71863          bne             a4,a5,656       # 0xffffffffc0201080

----------------
IN: 
0xffffffffc0200df4:  4505              addi            a0,zero,1
0xffffffffc0200df6:  191000ef          jal             ra,2448         # 0xffffffffc0201786

----------------
IN: 
0xffffffffc020165c:  41c8083b          subw            a6,a6,t3
0xffffffffc0201660:  0105a823          sw              a6,16(a1)
0xffffffffc0201664:  5775              addi            a4,zero,-3
0xffffffffc0201666:  17c1              addi            a5,a5,-16
0xffffffffc0201668:  60e7b02f          amoand.d        zero,a4,(a5)
0xffffffffc020166c:  8082              ret             

----------------
IN: 
0xffffffffc0200dfa:  89aa              mv              s3,a0
0xffffffffc0200dfc:  26050263          beqz            a0,612          # 0xffffffffc0201060

----------------
IN: 
0xffffffffc0200e00:  4505              addi            a0,zero,1
0xffffffffc0200e02:  185000ef          jal             ra,2436         # 0xffffffffc0201786

----------------
IN: 
0xffffffffc0200e06:  8aaa              mv              s5,a0
0xffffffffc0200e08:  3a050c63          beqz            a0,952          # 0xffffffffc02011c0

----------------
IN: 
0xffffffffc0200e0c:  4505              addi            a0,zero,1
0xffffffffc0200e0e:  179000ef          jal             ra,2424         # 0xffffffffc0201786

----------------
IN: 
0xffffffffc0200e12:  8a2a              mv              s4,a0
0xffffffffc0200e14:  38050663          beqz            a0,908          # 0xffffffffc02011a0

----------------
IN: 
0xffffffffc0200e18:  4505              addi            a0,zero,1
0xffffffffc0200e1a:  16d000ef          jal             ra,2412         # 0xffffffffc0201786

----------------
IN: 
0xffffffffc0200e1e:  36051163          bnez            a0,866          # 0xffffffffc0201180

----------------
IN: 
0xffffffffc0200e22:  4585              addi            a1,zero,1
0xffffffffc0200e24:  854e              mv              a0,s3
0xffffffffc0200e26:  19f000ef          jal             ra,2462         # 0xffffffffc02017c4

----------------
IN: 
0xffffffffc0200e2a:  641c              ld              a5,8(s0)
0xffffffffc0200e2c:  20878a63          beq             a5,s0,532       # 0xffffffffc0201040

----------------
IN: 
0xffffffffc0200e30:  4505              addi            a0,zero,1
0xffffffffc0200e32:  155000ef          jal             ra,2388         # 0xffffffffc0201786

----------------
IN: 
0xffffffffc0200e36:  30a99563          bne             s3,a0,778       # 0xffffffffc0201140

----------------
IN: 
0xffffffffc0200e3a:  4505              addi            a0,zero,1
0xffffffffc0200e3c:  14b000ef          jal             ra,2378         # 0xffffffffc0201786

----------------
IN: 
0xffffffffc0200e40:  2e051063          bnez            a0,736          # 0xffffffffc0201120

----------------
IN: 
0xffffffffc0200e44:  481c              lw              a5,16(s0)
0xffffffffc0200e46:  2a079d63          bnez            a5,698          # 0xffffffffc0201100

----------------
IN: 
0xffffffffc0200e4a:  854e              mv              a0,s3
0xffffffffc0200e4c:  4585              addi            a1,zero,1
0xffffffffc0200e4e:  01843023          sd              s8,0(s0)
0xffffffffc0200e52:  01743423          sd              s7,8(s0)
0xffffffffc0200e56:  01642823          sw              s6,16(s0)
0xffffffffc0200e5a:  16b000ef          jal             ra,2410         # 0xffffffffc02017c4

----------------
IN: 
0xffffffffc02014dc:  c199              beqz            a1,6            # 0xffffffffc02014e2

----------------
IN: 
0xffffffffc02014e2:  6398              ld              a4,0(a5)
0xffffffffc02014e4:  e390              sd              a2,0(a5)
0xffffffffc02014e6:  e710              sd              a2,8(a4)
0xffffffffc02014e8:  f11c              sd              a5,32(a0)
0xffffffffc02014ea:  ed18              sd              a4,24(a0)
0xffffffffc02014ec:  02d70063          beq             a4,a3,32        # 0xffffffffc020150c

----------------
IN: 
0xffffffffc0201512:  490c              lw              a1,16(a0)
0xffffffffc0201514:  fe870693          addi            a3,a4,-24
0xffffffffc0201518:  02059613          slli            a2,a1,32
0xffffffffc020151c:  9201              srli            a2,a2,32
0xffffffffc020151e:  00261793          slli            a5,a2,2
0xffffffffc0201522:  97b2              add             a5,a5,a2
0xffffffffc0201524:  078e              slli            a5,a5,3
0xffffffffc0201526:  97aa              add             a5,a5,a0
0xffffffffc0201528:  04f68863          beq             a3,a5,80        # 0xffffffffc0201578

----------------
IN: 
0xffffffffc0200e5e:  4585              addi            a1,zero,1
0xffffffffc0200e60:  8556              mv              a0,s5
0xffffffffc0200e62:  163000ef          jal             ra,2402         # 0xffffffffc02017c4

----------------
IN: 
0xffffffffc0201546:  491c              lw              a5,16(a0)
0xffffffffc0201548:  0107883b          addw            a6,a5,a6
0xffffffffc020154c:  ff072c23          sw              a6,-8(a4)
0xffffffffc0201550:  57f5              addi            a5,zero,-3
0xffffffffc0201552:  60f8b02f          amoand.d        zero,a5,(a7)
0xffffffffc0201556:  6d10              ld              a2,24(a0)
0xffffffffc0201558:  711c              ld              a5,32(a0)
0xffffffffc020155a:  852e              mv              a0,a1
0xffffffffc020155c:  e61c              sd              a5,8(a2)
0xffffffffc020155e:  6718              ld              a4,8(a4)
0xffffffffc0201560:  e390              sd              a2,0(a5)
0xffffffffc0201562:  b775              j               -84             # 0xffffffffc020150e

----------------
IN: 
0xffffffffc020150e:  00d70f63          beq             a4,a3,30        # 0xffffffffc020152c

----------------
IN: 
0xffffffffc0200e66:  4585              addi            a1,zero,1
0xffffffffc0200e68:  8552              mv              a0,s4
0xffffffffc0200e6a:  15b000ef          jal             ra,2394         # 0xffffffffc02017c4

----------------
IN: 
0xffffffffc0201578:  ff872783          lw              a5,-8(a4)
0xffffffffc020157c:  ff070693          addi            a3,a4,-16
0xffffffffc0201580:  9dbd              addw            a1,a1,a5
0xffffffffc0201582:  c90c              sw              a1,16(a0)
0xffffffffc0201584:  57f5              addi            a5,zero,-3
0xffffffffc0201586:  60f6b02f          amoand.d        zero,a5,(a3)
0xffffffffc020158a:  6314              ld              a3,0(a4)
0xffffffffc020158c:  671c              ld              a5,8(a4)
0xffffffffc020158e:  60a2              ld              ra,8(sp)
0xffffffffc0201590:  e69c              sd              a5,8(a3)
0xffffffffc0201592:  e394              sd              a3,0(a5)
0xffffffffc0201594:  0141              addi            sp,sp,16
0xffffffffc0201596:  8082              ret             

----------------
IN: 
0xffffffffc0200e6e:  4515              addi            a0,zero,5
0xffffffffc0200e70:  117000ef          jal             ra,2326         # 0xffffffffc0201786

----------------
IN: 
0xffffffffc0200e74:  89aa              mv              s3,a0
0xffffffffc0200e76:  26050563          beqz            a0,618          # 0xffffffffc02010e0

----------------
IN: 
0xffffffffc0200e7a:  651c              ld              a5,8(a0)
0xffffffffc0200e7c:  8385              srli            a5,a5,1
0xffffffffc0200e7e:  8b85              andi            a5,a5,1
0xffffffffc0200e80:  54079063          bnez            a5,1344         # 0xffffffffc02013c0

----------------
IN: 
0xffffffffc0200e84:  4505              addi            a0,zero,1
0xffffffffc0200e86:  00043b03          ld              s6,0(s0)
0xffffffffc0200e8a:  00843a83          ld              s5,8(s0)
0xffffffffc0200e8e:  e000              sd              s0,0(s0)
0xffffffffc0200e90:  e400              sd              s0,8(s0)
0xffffffffc0200e92:  0f5000ef          jal             ra,2292         # 0xffffffffc0201786

----------------
IN: 
0xffffffffc0200e96:  50051563          bnez            a0,1290         # 0xffffffffc02013a0

----------------
IN: 
0xffffffffc0200e9a:  05098a13          addi            s4,s3,80
0xffffffffc0200e9e:  8552              mv              a0,s4
0xffffffffc0200ea0:  458d              addi            a1,zero,3
0xffffffffc0200ea2:  01042b83          lw              s7,16(s0)
0xffffffffc0200ea6:  00006797          auipc           a5,24576        # 0xffffffffc0206ea6
0xffffffffc0200eaa:  1807a923          sw              zero,402(a5)
0xffffffffc0200eae:  117000ef          jal             ra,2326         # 0xffffffffc02017c4

----------------
IN: 
0xffffffffc0200eb2:  4511              addi            a0,zero,4
0xffffffffc0200eb4:  0d3000ef          jal             ra,2258         # 0xffffffffc0201786

----------------
IN: 
0xffffffffc0200eb8:  4c051463          bnez            a0,1224         # 0xffffffffc0201380

----------------
IN: 
0xffffffffc0200ebc:  0589b783          ld              a5,88(s3)
0xffffffffc0200ec0:  8385              srli            a5,a5,1
0xffffffffc0200ec2:  8b85              andi            a5,a5,1
0xffffffffc0200ec4:  48078e63          beqz            a5,1180         # 0xffffffffc0201360

----------------
IN: 
0xffffffffc0200ec8:  0609a703          lw              a4,96(s3)
0xffffffffc0200ecc:  478d              addi            a5,zero,3
0xffffffffc0200ece:  48f71963          bne             a4,a5,1170      # 0xffffffffc0201360

----------------
IN: 
0xffffffffc0200ed2:  450d              addi            a0,zero,3
0xffffffffc0200ed4:  0b3000ef          jal             ra,2226         # 0xffffffffc0201786

----------------
IN: 
0xffffffffc0200ed8:  8c2a              mv              s8,a0
0xffffffffc0200eda:  46050363          beqz            a0,1126         # 0xffffffffc0201340

----------------
IN: 
0xffffffffc0200ede:  4505              addi            a0,zero,1
0xffffffffc0200ee0:  0a7000ef          jal             ra,2214         # 0xffffffffc0201786

----------------
IN: 
0xffffffffc0200ee4:  42051e63          bnez            a0,1084         # 0xffffffffc0201320

----------------
IN: 
0xffffffffc0200ee8:  418a1c63          bne             s4,s8,1048      # 0xffffffffc0201300

----------------
IN: 
0xffffffffc0200eec:  4585              addi            a1,zero,1
0xffffffffc0200eee:  854e              mv              a0,s3
0xffffffffc0200ef0:  0d5000ef          jal             ra,2260         # 0xffffffffc02017c4

----------------
IN: 
0xffffffffc0200ef4:  458d              addi            a1,zero,3
0xffffffffc0200ef6:  8552              mv              a0,s4
0xffffffffc0200ef8:  0cd000ef          jal             ra,2252         # 0xffffffffc02017c4

----------------
IN: 
0xffffffffc0200efc:  0089b783          ld              a5,8(s3)
0xffffffffc0200f00:  02898c13          addi            s8,s3,40
0xffffffffc0200f04:  8385              srli            a5,a5,1
0xffffffffc0200f06:  8b85              andi            a5,a5,1
0xffffffffc0200f08:  3c078c63          beqz            a5,984          # 0xffffffffc02012e0

----------------
IN: 
0xffffffffc0200f0c:  0109a703          lw              a4,16(s3)
0xffffffffc0200f10:  4785              addi            a5,zero,1
0xffffffffc0200f12:  3cf71763          bne             a4,a5,974       # 0xffffffffc02012e0

----------------
IN: 
0xffffffffc0200f16:  008a3783          ld              a5,8(s4)
0xffffffffc0200f1a:  8385              srli            a5,a5,1
0xffffffffc0200f1c:  8b85              andi            a5,a5,1
0xffffffffc0200f1e:  3a078163          beqz            a5,930          # 0xffffffffc02012c0

----------------
IN: 
0xffffffffc0200f22:  010a2703          lw              a4,16(s4)
0xffffffffc0200f26:  478d              addi            a5,zero,3
0xffffffffc0200f28:  38f71c63          bne             a4,a5,920       # 0xffffffffc02012c0

----------------
IN: 
0xffffffffc0200f2c:  4505              addi            a0,zero,1
0xffffffffc0200f2e:  059000ef          jal             ra,2136         # 0xffffffffc0201786

----------------
IN: 
0xffffffffc0200f32:  36a99763          bne             s3,a0,878       # 0xffffffffc02012a0

----------------
IN: 
0xffffffffc0200f36:  4585              addi            a1,zero,1
0xffffffffc0200f38:  08d000ef          jal             ra,2188         # 0xffffffffc02017c4

----------------
IN: 
0xffffffffc0200f3c:  4509              addi            a0,zero,2
0xffffffffc0200f3e:  049000ef          jal             ra,2120         # 0xffffffffc0201786

----------------
IN: 
0xffffffffc0200f42:  32aa1f63          bne             s4,a0,830       # 0xffffffffc0201280

----------------
IN: 
0xffffffffc0200f46:  4589              addi            a1,zero,2
0xffffffffc0200f48:  07d000ef          jal             ra,2172         # 0xffffffffc02017c4

----------------
IN: 
0xffffffffc0200f4c:  4585              addi            a1,zero,1
0xffffffffc0200f4e:  8562              mv              a0,s8
0xffffffffc0200f50:  075000ef          jal             ra,2164         # 0xffffffffc02017c4

----------------
IN: 
0xffffffffc0200f54:  4515              addi            a0,zero,5
0xffffffffc0200f56:  031000ef          jal             ra,2096         # 0xffffffffc0201786

----------------
IN: 
0xffffffffc0200f5a:  89aa              mv              s3,a0
0xffffffffc0200f5c:  48050263          beqz            a0,1156         # 0xffffffffc02013e0

----------------
IN: 
0xffffffffc0200f60:  4505              addi            a0,zero,1
0xffffffffc0200f62:  025000ef          jal             ra,2084         # 0xffffffffc0201786

----------------
IN: 
0xffffffffc0200f66:  2c051d63          bnez            a0,730          # 0xffffffffc0201240

----------------
IN: 
0xffffffffc0200f6a:  481c              lw              a5,16(s0)
0xffffffffc0200f6c:  2a079a63          bnez            a5,692          # 0xffffffffc0201220

----------------
IN: 
0xffffffffc0200f70:  4595              addi            a1,zero,5
0xffffffffc0200f72:  854e              mv              a0,s3
0xffffffffc0200f74:  01742823          sw              s7,16(s0)
0xffffffffc0200f78:  01643023          sd              s6,0(s0)
0xffffffffc0200f7c:  01543423          sd              s5,8(s0)
0xffffffffc0200f80:  045000ef          jal             ra,2116         # 0xffffffffc02017c4

----------------
IN: 
0xffffffffc0200f84:  641c              ld              a5,8(s0)
0xffffffffc0200f86:  00878963          beq             a5,s0,18        # 0xffffffffc0200f98

----------------
IN: 
0xffffffffc0200f8a:  ff87a703          lw              a4,-8(a5)
0xffffffffc0200f8e:  679c              ld              a5,8(a5)
0xffffffffc0200f90:  397d              addiw           s2,s2,-1
0xffffffffc0200f92:  9c99              subw            s1,s1,a4
0xffffffffc0200f94:  fe879be3          bne             a5,s0,-10       # 0xffffffffc0200f8a

----------------
IN: 
0xffffffffc0200f98:  26091463          bnez            s2,616          # 0xffffffffc0201200

----------------
IN: 
0xffffffffc0200f9c:  46049263          bnez            s1,1124         # 0xffffffffc0201400

----------------
IN: 
0xffffffffc0200fa0:  60a6              ld              ra,72(sp)
0xffffffffc0200fa2:  6406              ld              s0,64(sp)
0xffffffffc0200fa4:  74e2              ld              s1,56(sp)
0xffffffffc0200fa6:  7942              ld              s2,48(sp)
0xffffffffc0200fa8:  79a2              ld              s3,40(sp)
0xffffffffc0200faa:  7a02              ld              s4,32(sp)
0xffffffffc0200fac:  6ae2              ld              s5,24(sp)
0xffffffffc0200fae:  6b42              ld              s6,16(sp)
0xffffffffc0200fb0:  6ba2              ld              s7,8(sp)
0xffffffffc0200fb2:  6c02              ld              s8,0(sp)
0xffffffffc0200fb4:  6161              addi            sp,sp,80
0xffffffffc0200fb6:  8082              ret             

----------------
IN: 
0xffffffffc020193e:  00001517          auipc           a0,4096         # 0xffffffffc020293e
0xffffffffc0201942:  4f250513          addi            a0,a0,1266
0xffffffffc0201946:  fb0fe0ef          jal             ra,-6224        # 0xffffffffc02000f6

----------------
IN: 
0xffffffffc020194a:  00004597          auipc           a1,16384        # 0xffffffffc020594a
0xffffffffc020194e:  6b658593          addi            a1,a1,1718
0xffffffffc0201952:  00006797          auipc           a5,24576        # 0xffffffffc0207952
0xffffffffc0201956:  b2b7bb23          sd              a1,-1226(a5)
0xffffffffc020195a:  c02007b7          lui             a5,-1071644672
0xffffffffc020195e:  0af5e363          bgtu            a5,a1,166       # 0xffffffffc0201a04

----------------
IN: 
0xffffffffc0201962:  6090              ld              a2,0(s1)
0xffffffffc0201964:  7402              ld              s0,32(sp)
0xffffffffc0201966:  70a2              ld              ra,40(sp)
0xffffffffc0201968:  64e2              ld              s1,24(sp)
0xffffffffc020196a:  6942              ld              s2,16(sp)
0xffffffffc020196c:  69a2              ld              s3,8(sp)
0xffffffffc020196e:  6a02              ld              s4,0(sp)
0xffffffffc0201970:  40c58633          sub             a2,a1,a2
0xffffffffc0201974:  00006797          auipc           a5,24576        # 0xffffffffc0207974
0xffffffffc0201978:  b0c7b623          sd              a2,-1268(a5)
0xffffffffc020197c:  00001517          auipc           a0,4096         # 0xffffffffc020297c
0xffffffffc0201980:  4d450513          addi            a0,a0,1236
0xffffffffc0201984:  6145              addi            sp,sp,48
0xffffffffc0201986:  f70fe06f          j               -6288           # 0xffffffffc02000f6

----------------
IN: 
0xffffffffc0200090:  7c8000ef          jal             ra,1992         # 0xffffffffc0200858

----------------
IN: 
0xffffffffc0200094:  00002517          auipc           a0,8192         # 0xffffffffc0202094
0xffffffffc0200098:  f3c50513          addi            a0,a0,-196
0xffffffffc020009c:  05a000ef          jal             ra,90           # 0xffffffffc02000f6

----------------
IN: 
0xffffffffc02000a0:  0000              illegal         

----------------
IN: 
0x000000008000291c:  86d2              mv              a3,s4
0x000000008000291e:  8626              mv              a2,s1
0x0000000080002920:  4589              addi            a1,zero,2
0x0000000080002922:  8556              mv              a0,s5
0x0000000080002924:  523020ef          jal             ra,11554        # 0x80005646

----------------
IN: 
0x0000000080005646:  7139              addi            sp,sp,-64
0x0000000080005648:  f822              sd              s0,48(sp)
0x000000008000564a:  f04a              sd              s2,32(sp)
0x000000008000564c:  ec4e              sd              s3,24(sp)
0x000000008000564e:  e852              sd              s4,16(sp)
0x0000000080005650:  e456              sd              s5,8(sp)
0x0000000080005652:  fc06              sd              ra,56(sp)
0x0000000080005654:  f426              sd              s1,40(sp)
0x0000000080005656:  0080              addi            s0,sp,64
0x0000000080005658:  8aaa              mv              s5,a0
0x000000008000565a:  89ae              mv              s3,a1
0x000000008000565c:  8932              mv              s2,a2
0x000000008000565e:  8a36              mv              s4,a3
0x0000000080005660:  34302573          csrrs           a0,mtval,zero

----------------
IN: 
0x0000000080005664:  448d              addi            s1,zero,3
0x0000000080005666:  00357793          andi            a5,a0,3
0x000000008000566a:  02979a63          bne             a5,s1,52        # 0x8000569e

----------------
IN: 
0x000000008000569e:  10164783          lbu             a5,257(a2)
0x00000000800056a2:  10064703          lbu             a4,256(a2)
0x00000000800056a6:  10264603          lbu             a2,258(a2)
0x00000000800056aa:  10394583          lbu             a1,259(s2)
0x00000000800056ae:  07a2              slli            a5,a5,8
0x00000000800056b0:  10494683          lbu             a3,260(s2)
0x00000000800056b4:  8fd9              or              a5,a5,a4
0x00000000800056b6:  0642              slli            a2,a2,16
0x00000000800056b8:  10594703          lbu             a4,261(s2)
0x00000000800056bc:  8e5d              or              a2,a2,a5
0x00000000800056be:  05e2              slli            a1,a1,24
0x00000000800056c0:  10694783          lbu             a5,262(s2)
0x00000000800056c4:  8dd1              or              a1,a1,a2
0x00000000800056c6:  1682              slli            a3,a3,32
0x00000000800056c8:  10794603          lbu             a2,263(s2)
0x00000000800056cc:  8ecd              or              a3,a3,a1
0x00000000800056ce:  1722              slli            a4,a4,40
0x00000000800056d0:  8f55              or              a4,a4,a3
0x00000000800056d2:  17c2              slli            a5,a5,48
0x00000000800056d4:  8fd9              or              a5,a5,a4
0x00000000800056d6:  1662              slli            a2,a2,56
0x00000000800056d8:  8e5d              or              a2,a2,a5
0x00000000800056da:  c901              beqz            a0,16           # 0x800056ea

----------------
IN: 
0x00000000800056ea:  4581              mv              a1,zero
0x00000000800056ec:  8532              mv              a0,a2
0x00000000800056ee:  efbfd0ef          jal             ra,-8454        # 0x800035e8

----------------
IN: 
0x00000000800035e8:  1141              addi            sp,sp,-16
0x00000000800035ea:  e422              sd              s0,8(sp)
0x00000000800035ec:  0800              addi            s0,sp,16
0x00000000800035ee:  862a              mv              a2,a0
0x00000000800035f0:  000a07b7          lui             a5,655360
0x00000000800035f4:  470d              addi            a4,zero,3
0x00000000800035f6:  3007a6f3          csrrs           a3,mstatus,a5

----------------
IN: 
0x00000000800035fa:  0000              illegal         
0x00000000800035fc:  0000              illegal         
0x00000000800035fe:  0000              illegal         
0x0000000080003600:  0000              illegal         

----------------
IN: 
0x0000000080003602:  0000              illegal         
0x0000000080003604:  0000              illegal         
0x0000000080003606:  0000              illegal         
0x0000000080003608:  0000              illegal         
0x000000008000360a:  0000              illegal         
0x000000008000360c:  0000              illegal         

----------------
IN: 
0x000000008000360e:  0000              illegal         
0x0000000080003610:  0000              illegal         
0x0000000080003612:  0000              illegal         

----------------
IN: 
0x0000000080003628:  0000              illegal         
0x000000008000362a:  0000              illegal         

----------------
IN: 
0x000000008000362c:  c191              beqz            a1,4            # 0x80003630

----------------
IN: 
0x0000000080003630:  6422              ld              s0,8(sp)
0x0000000080003632:  0141              addi            sp,sp,16
0x0000000080003634:  8082              ret             

----------------
IN: 
0x00000000800056f2:  00357793          andi            a5,a0,3
0x00000000800056f6:  f6978ce3          beq             a5,s1,-136      # 0x8000566e

----------------
IN: 
0x00000000800056fa:  10194783          lbu             a5,257(s2)
0x00000000800056fe:  10094703          lbu             a4,256(s2)
0x0000000080005702:  10294603          lbu             a2,258(s2)
0x0000000080005706:  10394583          lbu             a1,259(s2)
0x000000008000570a:  07a2              slli            a5,a5,8
0x000000008000570c:  10494683          lbu             a3,260(s2)
0x0000000080005710:  8fd9              or              a5,a5,a4
0x0000000080005712:  0642              slli            a2,a2,16
0x0000000080005714:  10594703          lbu             a4,261(s2)
0x0000000080005718:  8e5d              or              a2,a2,a5
0x000000008000571a:  05e2              slli            a1,a1,24
0x000000008000571c:  10694783          lbu             a5,262(s2)
0x0000000080005720:  8dd1              or              a1,a1,a2
0x0000000080005722:  1682              slli            a3,a3,32
0x0000000080005724:  10794603          lbu             a2,263(s2)
0x0000000080005728:  8ecd              or              a3,a3,a1
0x000000008000572a:  1722              slli            a4,a4,40
0x000000008000572c:  8f55              or              a4,a4,a3
0x000000008000572e:  17c2              slli            a5,a5,48
0x0000000080005730:  8fd9              or              a5,a5,a4
0x0000000080005732:  1662              slli            a2,a2,56
0x0000000080005734:  8e5d              or              a2,a2,a5
0x0000000080005736:  b75d              j               -90             # 0x800056dc

----------------
IN: 
0x00000000800056dc:  872a              mv              a4,a0
0x00000000800056de:  86ce              mv              a3,s3
0x00000000800056e0:  85d2              mv              a1,s4
0x00000000800056e2:  854a              mv              a0,s2
0x00000000800056e4:  cc2fc0ef          jal             ra,-15166       # 0x80001ba6

----------------
IN: 
0x0000000080001ba6:  1141              addi            sp,sp,-16
0x0000000080001ba8:  e422              sd              s0,8(sp)
0x0000000080001baa:  0800              addi            s0,sp,16
0x0000000080001bac:  10954583          lbu             a1,265(a0)
0x0000000080001bb0:  10854803          lbu             a6,264(a0)
0x0000000080001bb4:  10a54783          lbu             a5,266(a0)
0x0000000080001bb8:  10b54303          lbu             t1,267(a0)
0x0000000080001bbc:  05a2              slli            a1,a1,8
0x0000000080001bbe:  10c54883          lbu             a7,268(a0)
0x0000000080001bc2:  0105e5b3          or              a1,a1,a6
0x0000000080001bc6:  07c2              slli            a5,a5,16
0x0000000080001bc8:  10d54803          lbu             a6,269(a0)
0x0000000080001bcc:  8fcd              or              a5,a5,a1
0x0000000080001bce:  0362              slli            t1,t1,24
0x0000000080001bd0:  10e54583          lbu             a1,270(a0)
0x0000000080001bd4:  00f36333          or              t1,t1,a5
0x0000000080001bd8:  1882              slli            a7,a7,32
0x0000000080001bda:  10f54783          lbu             a5,271(a0)
0x0000000080001bde:  0068e8b3          or              a7,a7,t1
0x0000000080001be2:  1822              slli            a6,a6,40
0x0000000080001be4:  01186833          or              a6,a6,a7
0x0000000080001be8:  15c2              slli            a1,a1,48
0x0000000080001bea:  0105e5b3          or              a1,a1,a6
0x0000000080001bee:  17e2              slli            a5,a5,56
0x0000000080001bf0:  8fcd              or              a5,a5,a1
0x0000000080001bf2:  83ad              srli            a5,a5,11
0x0000000080001bf4:  0027f813          andi            a6,a5,2
0x0000000080001bf8:  0e081f63          bnez            a6,254          # 0x80001cf6

----------------
IN: 
0x0000000080001bfc:  0037f593          andi            a1,a5,3
0x0000000080001c00:  14371073          csrrw           zero,stval,a4

----------------
IN: 
0x0000000080001c04:  14161073          csrrw           zero,sepc,a2

----------------
IN: 
0x0000000080001c08:  14269073          csrrw           zero,scause,a3

----------------
IN: 
0x0000000080001c0c:  105027f3          csrrs           a5,stvec,zero

----------------
IN: 
0x0000000080001c10:  10954683          lbu             a3,265(a0)
0x0000000080001c14:  10854603          lbu             a2,264(a0)
0x0000000080001c18:  10a54703          lbu             a4,266(a0)
0x0000000080001c1c:  10b54883          lbu             a7,267(a0)
0x0000000080001c20:  06a2              slli            a3,a3,8
0x0000000080001c22:  10c54803          lbu             a6,268(a0)
0x0000000080001c26:  8ed1              or              a3,a3,a2
0x0000000080001c28:  0742              slli            a4,a4,16
0x0000000080001c2a:  10d54603          lbu             a2,269(a0)
0x0000000080001c2e:  8f55              or              a4,a4,a3
0x0000000080001c30:  08e2              slli            a7,a7,24
0x0000000080001c32:  10e54683          lbu             a3,270(a0)
0x0000000080001c36:  00e8e8b3          or              a7,a7,a4
0x0000000080001c3a:  1802              slli            a6,a6,32
0x0000000080001c3c:  10f54703          lbu             a4,271(a0)
0x0000000080001c40:  01186833          or              a6,a6,a7
0x0000000080001c44:  1622              slli            a2,a2,40
0x0000000080001c46:  01066633          or              a2,a2,a6
0x0000000080001c4a:  16c2              slli            a3,a3,48
0x0000000080001c4c:  0087df93          srli            t6,a5,8
0x0000000080001c50:  0107df13          srli            t5,a5,16
0x0000000080001c54:  0187de9b          srliw           t4,a5,24
0x0000000080001c58:  0207de13          srli            t3,a5,32
0x0000000080001c5c:  0287d313          srli            t1,a5,40
0x0000000080001c60:  0307d893          srli            a7,a5,48
0x0000000080001c64:  0387d813          srli            a6,a5,56
0x0000000080001c68:  8ed1              or              a3,a3,a2
0x0000000080001c6a:  1762              slli            a4,a4,56
0x0000000080001c6c:  10f50023          sb              a5,256(a0)
0x0000000080001c70:  77f9              lui             a5,-8192
0x0000000080001c72:  8f55              or              a4,a4,a3
0x0000000080001c74:  6dd78793          addi            a5,a5,1757
0x0000000080001c78:  11f500a3          sb              t6,257(a0)
0x0000000080001c7c:  11e50123          sb              t5,258(a0)
0x0000000080001c80:  11d501a3          sb              t4,259(a0)
0x0000000080001c84:  11c50223          sb              t3,260(a0)
0x0000000080001c88:  106502a3          sb              t1,261(a0)
0x0000000080001c8c:  11150323          sb              a7,262(a0)
0x0000000080001c90:  110503a3          sb              a6,263(a0)
0x0000000080001c94:  4685              addi            a3,zero,1
0x0000000080001c96:  8ff9              and             a5,a5,a4
0x0000000080001c98:  00d59463          bne             a1,a3,8         # 0x80001ca0

----------------
IN: 
0x0000000080001c9c:  1007e793          ori             a5,a5,256
0x0000000080001ca0:  8b09              andi            a4,a4,2
0x0000000080001ca2:  e739              bnez            a4,78           # 0x80001cf0

----------------
IN: 
0x0000000080001ca4:  6705              lui             a4,4096
0x0000000080001ca6:  80070713          addi            a4,a4,-2048
0x0000000080001caa:  8fd9              or              a5,a5,a4
0x0000000080001cac:  0087d313          srli            t1,a5,8
0x0000000080001cb0:  0107d893          srli            a7,a5,16
0x0000000080001cb4:  0187d81b          srliw           a6,a5,24
0x0000000080001cb8:  0207d593          srli            a1,a5,32
0x0000000080001cbc:  0287d613          srli            a2,a5,40
0x0000000080001cc0:  0307d693          srli            a3,a5,48
0x0000000080001cc4:  0387d713          srli            a4,a5,56
0x0000000080001cc8:  10f50423          sb              a5,264(a0)
0x0000000080001ccc:  106504a3          sb              t1,265(a0)
0x0000000080001cd0:  11150523          sb              a7,266(a0)
0x0000000080001cd4:  110505a3          sb              a6,267(a0)
0x0000000080001cd8:  10b50623          sb              a1,268(a0)
0x0000000080001cdc:  10c506a3          sb              a2,269(a0)
0x0000000080001ce0:  10d50723          sb              a3,270(a0)
0x0000000080001ce4:  10e507a3          sb              a4,271(a0)
0x0000000080001ce8:  4501              mv              a0,zero
0x0000000080001cea:  6422              ld              s0,8(sp)
0x0000000080001cec:  0141              addi            sp,sp,16
0x0000000080001cee:  8082              ret             

----------------
IN: 
0x00000000800056e8:  b755              j               -92             # 0x8000568c

----------------
IN: 
0x000000008000568c:  70e2              ld              ra,56(sp)
0x000000008000568e:  7442              ld              s0,48(sp)
0x0000000080005690:  74a2              ld              s1,40(sp)
0x0000000080005692:  7902              ld              s2,32(sp)
0x0000000080005694:  69e2              ld              s3,24(sp)
0x0000000080005696:  6a42              ld              s4,16(sp)
0x0000000080005698:  6aa2              ld              s5,8(sp)
0x000000008000569a:  6121              addi            sp,sp,64
0x000000008000569c:  8082              ret             

----------------
IN: 
0x0000000080002928:  00007697          auipc           a3,28672        # 0x80009928
0x000000008000292c:  a1068693          addi            a3,a3,-1520
0x0000000080002930:  c2050763          beqz            a0,-3026        # 0x80001d5e

----------------
IN: 
0xffffffffc0200bf8:  14011073          csrrw           zero,sscratch,sp

----------------
IN: 
0xffffffffc0200bfc:  712d              addi            sp,sp,-288
0xffffffffc0200bfe:  e002              sd              zero,0(sp)
0xffffffffc0200c00:  e406              sd              ra,8(sp)
0xffffffffc0200c02:  ec0e              sd              gp,24(sp)
0xffffffffc0200c04:  f012              sd              tp,32(sp)
0xffffffffc0200c06:  f416              sd              t0,40(sp)
0xffffffffc0200c08:  f81a              sd              t1,48(sp)
0xffffffffc0200c0a:  fc1e              sd              t2,56(sp)
0xffffffffc0200c0c:  e0a2              sd              s0,64(sp)
0xffffffffc0200c0e:  e4a6              sd              s1,72(sp)
0xffffffffc0200c10:  e8aa              sd              a0,80(sp)
0xffffffffc0200c12:  ecae              sd              a1,88(sp)
0xffffffffc0200c14:  f0b2              sd              a2,96(sp)
0xffffffffc0200c16:  f4b6              sd              a3,104(sp)
0xffffffffc0200c18:  f8ba              sd              a4,112(sp)
0xffffffffc0200c1a:  fcbe              sd              a5,120(sp)
0xffffffffc0200c1c:  e142              sd              a6,128(sp)
0xffffffffc0200c1e:  e546              sd              a7,136(sp)
0xffffffffc0200c20:  e94a              sd              s2,144(sp)
0xffffffffc0200c22:  ed4e              sd              s3,152(sp)
0xffffffffc0200c24:  f152              sd              s4,160(sp)
0xffffffffc0200c26:  f556              sd              s5,168(sp)
0xffffffffc0200c28:  f95a              sd              s6,176(sp)
0xffffffffc0200c2a:  fd5e              sd              s7,184(sp)
0xffffffffc0200c2c:  e1e2              sd              s8,192(sp)
0xffffffffc0200c2e:  e5e6              sd              s9,200(sp)
0xffffffffc0200c30:  e9ea              sd              s10,208(sp)
0xffffffffc0200c32:  edee              sd              s11,216(sp)
0xffffffffc0200c34:  f1f2              sd              t3,224(sp)
0xffffffffc0200c36:  f5f6              sd              t4,232(sp)
0xffffffffc0200c38:  f9fa              sd              t5,240(sp)
0xffffffffc0200c3a:  fdfe              sd              t6,248(sp)
0xffffffffc0200c3c:  14001473          csrrw           s0,sscratch,zero

----------------
IN: 
0xffffffffc0200c40:  100024f3          csrrs           s1,sstatus,zero

----------------
IN: 
0xffffffffc0200c44:  14102973          csrrs           s2,sepc,zero

----------------
IN: 
0xffffffffc0200c48:  143029f3          csrrs           s3,stval,zero

----------------
IN: 
0xffffffffc0200c4c:  14202a73          csrrs           s4,scause,zero

----------------
IN: 
0xffffffffc0200c50:  e822              sd              s0,16(sp)
0xffffffffc0200c52:  e226              sd              s1,256(sp)
0xffffffffc0200c54:  e64a              sd              s2,264(sp)
0xffffffffc0200c56:  ea4e              sd              s3,272(sp)
0xffffffffc0200c58:  ee52              sd              s4,280(sp)
0xffffffffc0200c5a:  850a              mv              a0,sp
0xffffffffc0200c5c:  f8fff0ef          jal             ra,-114         # 0xffffffffc0200bea

----------------
IN: 
0xffffffffc0200bea:  11853783          ld              a5,280(a0)
0xffffffffc0200bee:  0007c363          bltz            a5,6            # 0xffffffffc0200bf4

----------------
IN: 
0xffffffffc0200bf2:  bf85              j               -144            # 0xffffffffc0200b62

----------------
IN: 
0xffffffffc0200b62:  11853783          ld              a5,280(a0)
0xffffffffc0200b66:  1141              addi            sp,sp,-16
0xffffffffc0200b68:  e022              sd              s0,0(sp)
0xffffffffc0200b6a:  e406              sd              ra,8(sp)
0xffffffffc0200b6c:  470d              addi            a4,zero,3
0xffffffffc0200b6e:  842a              mv              s0,a0
0xffffffffc0200b70:  04e78663          beq             a5,a4,76        # 0xffffffffc0200bbc

----------------
IN: 
0xffffffffc0200b74:  02f76c63          bgtu            a5,a4,56        # 0xffffffffc0200bac

----------------
IN: 
0xffffffffc0200b78:  4709              addi            a4,zero,2
0xffffffffc0200b7a:  02e79563          bne             a5,a4,42        # 0xffffffffc0200ba4

----------------
IN: 
0xffffffffc0200b7e:  10853583          ld              a1,264(a0)
0xffffffffc0200b82:  00002517          auipc           a0,8192         # 0xffffffffc0202b82
0xffffffffc0200b86:  d3e50513          addi            a0,a0,-706
0xffffffffc0200b8a:  d6cff0ef          jal             ra,-2708        # 0xffffffffc02000f6

----------------
IN: 
0xffffffffc0201d90:  000a6603          lwu             a2,0(s4)
0xffffffffc0201d94:  46c1              addi            a3,zero,16
0xffffffffc0201d96:  8a2e              mv              s4,a1
0xffffffffc0201d98:  b5a1              j               -440            # 0xffffffffc0201be0

----------------
IN: 
0xffffffffc0200b8e:  00002517          auipc           a0,8192         # 0xffffffffc0202b8e
0xffffffffc0200b92:  d5a50513          addi            a0,a0,-678
0xffffffffc0200b96:  d60ff0ef          jal             ra,-2720        # 0xffffffffc02000f6

----------------
IN: 
0xffffffffc0200b9a:  10843783          ld              a5,264(s0)
0xffffffffc0200b9e:  0791              addi            a5,a5,4
0xffffffffc0200ba0:  10f43423          sd              a5,264(s0)
0xffffffffc0200ba4:  60a2              ld              ra,8(sp)
0xffffffffc0200ba6:  6402              ld              s0,0(sp)
0xffffffffc0200ba8:  0141              addi            sp,sp,16
0xffffffffc0200baa:  8082              ret             

----------------
IN: 
0xffffffffc0200c60:  6492              ld              s1,256(sp)
0xffffffffc0200c62:  6932              ld              s2,264(sp)
0xffffffffc0200c64:  10049073          csrrw           zero,sstatus,s1

----------------
IN: 
0xffffffffc0200c68:  14191073          csrrw           zero,sepc,s2

----------------
IN: 
0xffffffffc0200c6c:  60a2              ld              ra,8(sp)
0xffffffffc0200c6e:  61e2              ld              gp,24(sp)
0xffffffffc0200c70:  7202              ld              tp,32(sp)
0xffffffffc0200c72:  72a2              ld              t0,40(sp)
0xffffffffc0200c74:  7342              ld              t1,48(sp)
0xffffffffc0200c76:  73e2              ld              t2,56(sp)
0xffffffffc0200c78:  6406              ld              s0,64(sp)
0xffffffffc0200c7a:  64a6              ld              s1,72(sp)
0xffffffffc0200c7c:  6546              ld              a0,80(sp)
0xffffffffc0200c7e:  65e6              ld              a1,88(sp)
0xffffffffc0200c80:  7606              ld              a2,96(sp)
0xffffffffc0200c82:  76a6              ld              a3,104(sp)
0xffffffffc0200c84:  7746              ld              a4,112(sp)
0xffffffffc0200c86:  77e6              ld              a5,120(sp)
0xffffffffc0200c88:  680a              ld              a6,128(sp)
0xffffffffc0200c8a:  68aa              ld              a7,136(sp)
0xffffffffc0200c8c:  694a              ld              s2,144(sp)
0xffffffffc0200c8e:  69ea              ld              s3,152(sp)
0xffffffffc0200c90:  7a0a              ld              s4,160(sp)
0xffffffffc0200c92:  7aaa              ld              s5,168(sp)
0xffffffffc0200c94:  7b4a              ld              s6,176(sp)
0xffffffffc0200c96:  7bea              ld              s7,184(sp)
0xffffffffc0200c98:  6c0e              ld              s8,192(sp)
0xffffffffc0200c9a:  6cae              ld              s9,200(sp)
0xffffffffc0200c9c:  6d4e              ld              s10,208(sp)
0xffffffffc0200c9e:  6dee              ld              s11,216(sp)
0xffffffffc0200ca0:  7e0e              ld              t3,224(sp)
0xffffffffc0200ca2:  7eae              ld              t4,232(sp)
0xffffffffc0200ca4:  7f4e              ld              t5,240(sp)
0xffffffffc0200ca6:  7fee              ld              t6,248(sp)
0xffffffffc0200ca8:  6142              ld              sp,16(sp)
0xffffffffc0200caa:  10200073          sret            

----------------
IN: 
0xffffffffc02000a4:  00002517          auipc           a0,8192         # 0xffffffffc02020a4
0xffffffffc02000a8:  f4c50513          addi            a0,a0,-180
0xffffffffc02000ac:  04a000ef          jal             ra,74           # 0xffffffffc02000f6

----------------
IN: 
0xffffffffc02000b0:  9002              ebreak          

----------------
IN: 
0xffffffffc0200bbc:  10853583          ld              a1,264(a0)
0xffffffffc0200bc0:  00002517          auipc           a0,8192         # 0xffffffffc0202bc0
0xffffffffc0200bc4:  d5050513          addi            a0,a0,-688
0xffffffffc0200bc8:  d2eff0ef          jal             ra,-2770        # 0xffffffffc02000f6

----------------
IN: 
0xffffffffc0200bcc:  00002517          auipc           a0,8192         # 0xffffffffc0202bcc
0xffffffffc0200bd0:  d6450513          addi            a0,a0,-668
0xffffffffc0200bd4:  d22ff0ef          jal             ra,-2782        # 0xffffffffc02000f6

----------------
IN: 
0xffffffffc0200bd8:  10843783          ld              a5,264(s0)
0xffffffffc0200bdc:  60a2              ld              ra,8(sp)
0xffffffffc0200bde:  0791              addi            a5,a5,4
0xffffffffc0200be0:  10f43423          sd              a5,264(s0)
0xffffffffc0200be4:  6402              ld              s0,0(sp)
0xffffffffc0200be6:  0141              addi            sp,sp,16
0xffffffffc0200be8:  8082              ret             

----------------
IN: 
0xffffffffc02000b4:  39a0              fld             fs0,112(a1)
0xffffffffc02000b6:  796000ef          jal             ra,1942         # 0xffffffffc020084c

----------------
IN: 
0xffffffffc0200bac:  17f1              addi            a5,a5,-4
0xffffffffc0200bae:  471d              addi            a4,zero,7
0xffffffffc0200bb0:  fef77ae3          bleu            a5,a4,-12       # 0xffffffffc0200ba4

----------------
IN: 
0xffffffffc0200bb4:  6402              ld              s0,0(sp)
0xffffffffc0200bb6:  60a2              ld              ra,8(sp)
0xffffffffc0200bb8:  0141              addi            sp,sp,16
0xffffffffc0200bba:  bdbd              j               -386            # 0xffffffffc0200a38

----------------
IN: 
0xffffffffc0200a38:  1141              addi            sp,sp,-16
0xffffffffc0200a3a:  e022              sd              s0,0(sp)
0xffffffffc0200a3c:  85aa              mv              a1,a0
0xffffffffc0200a3e:  842a              mv              s0,a0
0xffffffffc0200a40:  00002517          auipc           a0,8192         # 0xffffffffc0202a40
0xffffffffc0200a44:  cf850513          addi            a0,a0,-776
0xffffffffc0200a48:  e406              sd              ra,8(sp)
0xffffffffc0200a4a:  eacff0ef          jal             ra,-2388        # 0xffffffffc02000f6

----------------
IN: 
0xffffffffc0201c48:  03000513          addi            a0,zero,48
0xffffffffc0201c4c:  85a6              mv              a1,s1
0xffffffffc0201c4e:  e03e              sd              a5,0(sp)
0xffffffffc0201c50:  9902              jalr            ra,s2,0

----------------
IN: 
0xffffffffc0201c52:  85a6              mv              a1,s1
0xffffffffc0201c54:  07800513          addi            a0,zero,120
0xffffffffc0201c58:  9902              jalr            ra,s2,0

----------------
IN: 
0xffffffffc0201c5a:  0a21              addi            s4,s4,8
0xffffffffc0201c5c:  6782              ld              a5,0(sp)
0xffffffffc0201c5e:  46c1              addi            a3,zero,16
0xffffffffc0201c60:  ff8a3603          ld              a2,-8(s4)
0xffffffffc0201c64:  bfb5              j               -132            # 0xffffffffc0201be0

----------------
IN: 
0xffffffffc0200a4e:  8522              mv              a0,s0
0xffffffffc0200a50:  e1bff0ef          jal             ra,-486         # 0xffffffffc020086a

----------------
IN: 
0xffffffffc020086a:  610c              ld              a1,0(a0)
0xffffffffc020086c:  1141              addi            sp,sp,-16
0xffffffffc020086e:  e022              sd              s0,0(sp)
0xffffffffc0200870:  842a              mv              s0,a0
0xffffffffc0200872:  00002517          auipc           a0,8192         # 0xffffffffc0202872
0xffffffffc0200876:  bc650513          addi            a0,a0,-1082
0xffffffffc020087a:  e406              sd              ra,8(sp)
0xffffffffc020087c:  87bff0ef          jal             ra,-1926        # 0xffffffffc02000f6

----------------
IN: 
0xffffffffc0200880:  640c              ld              a1,8(s0)
0xffffffffc0200882:  00002517          auipc           a0,8192         # 0xffffffffc0202882
0xffffffffc0200886:  bce50513          addi            a0,a0,-1074
0xffffffffc020088a:  86dff0ef          jal             ra,-1940        # 0xffffffffc02000f6

----------------
IN: 
0xffffffffc020088e:  680c              ld              a1,16(s0)
0xffffffffc0200890:  00002517          auipc           a0,8192         # 0xffffffffc0202890
0xffffffffc0200894:  bd850513          addi            a0,a0,-1064
0xffffffffc0200898:  85fff0ef          jal             ra,-1954        # 0xffffffffc02000f6

----------------
IN: 
0xffffffffc020089c:  6c0c              ld              a1,24(s0)
0xffffffffc020089e:  00002517          auipc           a0,8192         # 0xffffffffc020289e
0xffffffffc02008a2:  be250513          addi            a0,a0,-1054
0xffffffffc02008a6:  851ff0ef          jal             ra,-1968        # 0xffffffffc02000f6

----------------
IN: 
0xffffffffc02008aa:  700c              ld              a1,32(s0)
0xffffffffc02008ac:  00002517          auipc           a0,8192         # 0xffffffffc02028ac
0xffffffffc02008b0:  bec50513          addi            a0,a0,-1044
0xffffffffc02008b4:  843ff0ef          jal             ra,-1982        # 0xffffffffc02000f6

----------------
IN: 
0xffffffffc02008b8:  740c              ld              a1,40(s0)
0xffffffffc02008ba:  00002517          auipc           a0,8192         # 0xffffffffc02028ba
0xffffffffc02008be:  bf650513          addi            a0,a0,-1034
0xffffffffc02008c2:  835ff0ef          jal             ra,-1996        # 0xffffffffc02000f6

----------------
IN: 
0xffffffffc02008c6:  780c              ld              a1,48(s0)
0xffffffffc02008c8:  00002517          auipc           a0,8192         # 0xffffffffc02028c8
0xffffffffc02008cc:  c0050513          addi            a0,a0,-1024
0xffffffffc02008d0:  827ff0ef          jal             ra,-2010        # 0xffffffffc02000f6

----------------
IN: 
0xffffffffc02008d4:  7c0c              ld              a1,56(s0)
0xffffffffc02008d6:  00002517          auipc           a0,8192         # 0xffffffffc02028d6
0xffffffffc02008da:  c0a50513          addi            a0,a0,-1014
0xffffffffc02008de:  819ff0ef          jal             ra,-2024        # 0xffffffffc02000f6

----------------
IN: 
0xffffffffc02008e2:  602c              ld              a1,64(s0)
0xffffffffc02008e4:  00002517          auipc           a0,8192         # 0xffffffffc02028e4
0xffffffffc02008e8:  c1450513          addi            a0,a0,-1004
0xffffffffc02008ec:  80bff0ef          jal             ra,-2038        # 0xffffffffc02000f6

----------------
IN: 
0xffffffffc02008f0:  642c              ld              a1,72(s0)
0xffffffffc02008f2:  00002517          auipc           a0,8192         # 0xffffffffc02028f2
0xffffffffc02008f6:  c1e50513          addi            a0,a0,-994
0xffffffffc02008fa:  ffcff0ef          jal             ra,-2052        # 0xffffffffc02000f6

----------------
IN: 
0xffffffffc02008fe:  682c              ld              a1,80(s0)
0xffffffffc0200900:  00002517          auipc           a0,8192         # 0xffffffffc0202900
0xffffffffc0200904:  c2850513          addi            a0,a0,-984
0xffffffffc0200908:  feeff0ef          jal             ra,-2066        # 0xffffffffc02000f6

----------------
IN: 
0xffffffffc020090c:  6c2c              ld              a1,88(s0)
0xffffffffc020090e:  00002517          auipc           a0,8192         # 0xffffffffc020290e
0xffffffffc0200912:  c3250513          addi            a0,a0,-974
0xffffffffc0200916:  fe0ff0ef          jal             ra,-2080        # 0xffffffffc02000f6

----------------
IN: 
0xffffffffc020091a:  702c              ld              a1,96(s0)
0xffffffffc020091c:  00002517          auipc           a0,8192         # 0xffffffffc020291c
0xffffffffc0200920:  c3c50513          addi            a0,a0,-964
0xffffffffc0200924:  fd2ff0ef          jal             ra,-2094        # 0xffffffffc02000f6

----------------
IN: 
0xffffffffc0200928:  742c              ld              a1,104(s0)
0xffffffffc020092a:  00002517          auipc           a0,8192         # 0xffffffffc020292a
0xffffffffc020092e:  c4650513          addi            a0,a0,-954
0xffffffffc0200932:  fc4ff0ef          jal             ra,-2108        # 0xffffffffc02000f6

----------------
IN: 
0xffffffffc0200936:  782c              ld              a1,112(s0)
0xffffffffc0200938:  00002517          auipc           a0,8192         # 0xffffffffc0202938
0xffffffffc020093c:  c5050513          addi            a0,a0,-944
0xffffffffc0200940:  fb6ff0ef          jal             ra,-2122        # 0xffffffffc02000f6

----------------
IN: 
0xffffffffc0200944:  7c2c              ld              a1,120(s0)
0xffffffffc0200946:  00002517          auipc           a0,8192         # 0xffffffffc0202946
0xffffffffc020094a:  c5a50513          addi            a0,a0,-934
0xffffffffc020094e:  fa8ff0ef          jal             ra,-2136        # 0xffffffffc02000f6

----------------
IN: 
0xffffffffc0200952:  604c              ld              a1,128(s0)
0xffffffffc0200954:  00002517          auipc           a0,8192         # 0xffffffffc0202954
0xffffffffc0200958:  c6450513          addi            a0,a0,-924
0xffffffffc020095c:  f9aff0ef          jal             ra,-2150        # 0xffffffffc02000f6

----------------
IN: 
0xffffffffc0200960:  644c              ld              a1,136(s0)
0xffffffffc0200962:  00002517          auipc           a0,8192         # 0xffffffffc0202962
0xffffffffc0200966:  c6e50513          addi            a0,a0,-914
0xffffffffc020096a:  f8cff0ef          jal             ra,-2164        # 0xffffffffc02000f6

----------------
IN: 
0xffffffffc020096e:  684c              ld              a1,144(s0)
0xffffffffc0200970:  00002517          auipc           a0,8192         # 0xffffffffc0202970
0xffffffffc0200974:  c7850513          addi            a0,a0,-904
0xffffffffc0200978:  f7eff0ef          jal             ra,-2178        # 0xffffffffc02000f6

----------------
IN: 
0xffffffffc020097c:  6c4c              ld              a1,152(s0)
0xffffffffc020097e:  00002517          auipc           a0,8192         # 0xffffffffc020297e
0xffffffffc0200982:  c8250513          addi            a0,a0,-894
0xffffffffc0200986:  f70ff0ef          jal             ra,-2192        # 0xffffffffc02000f6

----------------
IN: 
0xffffffffc020098a:  704c              ld              a1,160(s0)
0xffffffffc020098c:  00002517          auipc           a0,8192         # 0xffffffffc020298c
0xffffffffc0200990:  c8c50513          addi            a0,a0,-884
0xffffffffc0200994:  f62ff0ef          jal             ra,-2206        # 0xffffffffc02000f6

----------------
IN: 
0xffffffffc0200998:  744c              ld              a1,168(s0)
0xffffffffc020099a:  00002517          auipc           a0,8192         # 0xffffffffc020299a
0xffffffffc020099e:  c9650513          addi            a0,a0,-874
0xffffffffc02009a2:  f54ff0ef          jal             ra,-2220        # 0xffffffffc02000f6

----------------
IN: 
0xffffffffc02009a6:  784c              ld              a1,176(s0)
0xffffffffc02009a8:  00002517          auipc           a0,8192         # 0xffffffffc02029a8
0xffffffffc02009ac:  ca050513          addi            a0,a0,-864
0xffffffffc02009b0:  f46ff0ef          jal             ra,-2234        # 0xffffffffc02000f6

----------------
IN: 
0xffffffffc02009b4:  7c4c              ld              a1,184(s0)
0xffffffffc02009b6:  00002517          auipc           a0,8192         # 0xffffffffc02029b6
0xffffffffc02009ba:  caa50513          addi            a0,a0,-854
0xffffffffc02009be:  f38ff0ef          jal             ra,-2248        # 0xffffffffc02000f6

----------------
IN: 
0xffffffffc02009c2:  606c              ld              a1,192(s0)
0xffffffffc02009c4:  00002517          auipc           a0,8192         # 0xffffffffc02029c4
0xffffffffc02009c8:  cb450513          addi            a0,a0,-844
0xffffffffc02009cc:  f2aff0ef          jal             ra,-2262        # 0xffffffffc02000f6

----------------
IN: 
0xffffffffc02009d0:  646c              ld              a1,200(s0)
0xffffffffc02009d2:  00002517          auipc           a0,8192         # 0xffffffffc02029d2
0xffffffffc02009d6:  cbe50513          addi            a0,a0,-834
0xffffffffc02009da:  f1cff0ef          jal             ra,-2276        # 0xffffffffc02000f6

----------------
IN: 
0xffffffffc02009de:  686c              ld              a1,208(s0)
0xffffffffc02009e0:  00002517          auipc           a0,8192         # 0xffffffffc02029e0
0xffffffffc02009e4:  cc850513          addi            a0,a0,-824
0xffffffffc02009e8:  f0eff0ef          jal             ra,-2290        # 0xffffffffc02000f6

----------------
IN: 
0xffffffffc02009ec:  6c6c              ld              a1,216(s0)
0xffffffffc02009ee:  00002517          auipc           a0,8192         # 0xffffffffc02029ee
0xffffffffc02009f2:  cd250513          addi            a0,a0,-814
0xffffffffc02009f6:  f00ff0ef          jal             ra,-2304        # 0xffffffffc02000f6

----------------
IN: 
0xffffffffc02009fa:  706c              ld              a1,224(s0)
0xffffffffc02009fc:  00002517          auipc           a0,8192         # 0xffffffffc02029fc
0xffffffffc0200a00:  cdc50513          addi            a0,a0,-804
0xffffffffc0200a04:  ef2ff0ef          jal             ra,-2318        # 0xffffffffc02000f6

----------------
IN: 
0xffffffffc0200a08:  746c              ld              a1,232(s0)
0xffffffffc0200a0a:  00002517          auipc           a0,8192         # 0xffffffffc0202a0a
0xffffffffc0200a0e:  ce650513          addi            a0,a0,-794
0xffffffffc0200a12:  ee4ff0ef          jal             ra,-2332        # 0xffffffffc02000f6

----------------
IN: 
0xffffffffc0200a16:  786c              ld              a1,240(s0)
0xffffffffc0200a18:  00002517          auipc           a0,8192         # 0xffffffffc0202a18
0xffffffffc0200a1c:  cf050513          addi            a0,a0,-784
0xffffffffc0200a20:  ed6ff0ef          jal             ra,-2346        # 0xffffffffc02000f6

----------------
IN: 
0xffffffffc0200a24:  7c6c              ld              a1,248(s0)
0xffffffffc0200a26:  6402              ld              s0,0(sp)
0xffffffffc0200a28:  60a2              ld              ra,8(sp)
0xffffffffc0200a2a:  00002517          auipc           a0,8192         # 0xffffffffc0202a2a
0xffffffffc0200a2e:  cf650513          addi            a0,a0,-778
0xffffffffc0200a32:  0141              addi            sp,sp,16
0xffffffffc0200a34:  ec2ff06f          j               -2366           # 0xffffffffc02000f6

----------------
IN: 
0xffffffffc0200a54:  10043583          ld              a1,256(s0)
0xffffffffc0200a58:  00002517          auipc           a0,8192         # 0xffffffffc0202a58
0xffffffffc0200a5c:  cf850513          addi            a0,a0,-776
0xffffffffc0200a60:  e96ff0ef          jal             ra,-2410        # 0xffffffffc02000f6

----------------
IN: 
0xffffffffc0200a64:  10843583          ld              a1,264(s0)
0xffffffffc0200a68:  00002517          auipc           a0,8192         # 0xffffffffc0202a68
0xffffffffc0200a6c:  d0050513          addi            a0,a0,-768
0xffffffffc0200a70:  e86ff0ef          jal             ra,-2426        # 0xffffffffc02000f6

----------------
IN: 
0xffffffffc0200a74:  11043583          ld              a1,272(s0)
0xffffffffc0200a78:  00002517          auipc           a0,8192         # 0xffffffffc0202a78
0xffffffffc0200a7c:  d0850513          addi            a0,a0,-760
0xffffffffc0200a80:  e76ff0ef          jal             ra,-2442        # 0xffffffffc02000f6

----------------
IN: 
0xffffffffc0200a84:  11843583          ld              a1,280(s0)
0xffffffffc0200a88:  6402              ld              s0,0(sp)
0xffffffffc0200a8a:  60a2              ld              ra,8(sp)
0xffffffffc0200a8c:  00002517          auipc           a0,8192         # 0xffffffffc0202a8c
0xffffffffc0200a90:  d0c50513          addi            a0,a0,-756
0xffffffffc0200a94:  0141              addi            sp,sp,16
0xffffffffc0200a96:  e60ff06f          j               -2464           # 0xffffffffc02000f6

